
sysroot/usr/bin/wc:     file format elf32-littlearm


Disassembly of section .init:

00008000 <_init>:
    8000:	e1a0c00d 	mov	ip, sp
    8004:	e92ddff8 	push	{r3, r4, r5, r6, r7, r8, r9, sl, fp, ip, lr, pc}
    8008:	e24cb004 	sub	fp, ip, #4
    800c:	e24bd028 	sub	sp, fp, #40	@ 0x28
    8010:	e89d6ff0 	ldm	sp, {r4, r5, r6, r7, r8, r9, sl, fp, sp, lr}
    8014:	e12fff1e 	bx	lr

Disassembly of section .text:

00008040 <main>:
}


int
main (int argc, char **argv)
{
    8040:	e92d4ff0 	push	{r4, r5, r6, r7, r8, r9, sl, fp, lr}
    8044:	e1a06000 	mov	r6, r0
    8048:	ed2d8b04 	vpush	{d8-d9}
    804c:	e24ddf4b 	sub	sp, sp, #300	@ 0x12c
    8050:	e1a05001 	mov	r5, r1
  atexit (close_stdout);

  page_size = getpagesize ();
  /* Line buffer stdout to ensure lines are written atomically and immediately
     so that processes running in parallel do not intersperse their output.  */
  setvbuf (stdout, nullptr, _IOLBF, 0);
    8054:	e30ba1e8 	movw	sl, #45544	@ 0xb1e8
  set_program_name (argv[0]);
    8058:	e5910000 	ldr	r0, [r1]
  setvbuf (stdout, nullptr, _IOLBF, 0);
    805c:	e340a002 	movt	sl, #2
  set_program_name (argv[0]);
    8060:	eb000d48 	bl	b588 <set_program_name>
  setlocale (LC_ALL, "");
    8064:	e3081d5c 	movw	r1, #36188	@ 0x8d5c
    8068:	e3a00000 	mov	r0, #0
    806c:	e3401002 	movt	r1, #2
  page_size = getpagesize ();
    8070:	e30b4338 	movw	r4, #45880	@ 0xb338
  setlocale (LC_ALL, "");
    8074:	eb004c19 	bl	1b0e0 <setlocale>
  atexit (close_stdout);
    8078:	e3090f80 	movw	r0, #40832	@ 0x9f80
  page_size = getpagesize ();
    807c:	e3404002 	movt	r4, #2
  atexit (close_stdout);
    8080:	e3400000 	movt	r0, #0

  print_lines = print_words = print_chars = print_bytes = false;
  print_linelength = false;
  total_lines = total_words = total_chars = total_bytes = max_line_length = 0;

  while ((optc = getopt_long (argc, argv, "clLmw", longopts, nullptr)) != -1)
    8084:	e3087948 	movw	r7, #35144	@ 0x8948
  atexit (close_stdout);
    8088:	eb0039be 	bl	16788 <atexit>
  page_size = getpagesize ();
    808c:	e3a00008 	mov	r0, #8
  while ((optc = getopt_long (argc, argv, "clLmw", longopts, nullptr)) != -1)
    8090:	e3407002 	movt	r7, #2
  page_size = getpagesize ();
    8094:	eb005e0b 	bl	1f8c8 <sysconf>
  setvbuf (stdout, nullptr, _IOLBF, 0);
    8098:	e59a3000 	ldr	r3, [sl]
    809c:	e3a02001 	mov	r2, #1
  page_size = getpagesize ();
    80a0:	e584000c 	str	r0, [r4, #12]
    80a4:	e58d4024 	str	r4, [sp, #36]	@ 0x24
  setvbuf (stdout, nullptr, _IOLBF, 0);
    80a8:	e5930008 	ldr	r0, [r3, #8]
    80ac:	e3a03000 	mov	r3, #0
    80b0:	e1a01003 	mov	r1, r3
    80b4:	eb004471 	bl	19280 <setvbuf>
  posixly_correct = (getenv ("POSIXLY_CORRECT") != nullptr);
    80b8:	e3080914 	movw	r0, #35092	@ 0x8914
    80bc:	e3400002 	movt	r0, #2
    80c0:	eb0039c8 	bl	167e8 <getenv>
    80c4:	e2500000 	subs	r0, r0, #0
  print_lines = print_words = print_chars = print_bytes = false;
    80c8:	e3a03000 	mov	r3, #0
  posixly_correct = (getenv ("POSIXLY_CORRECT") != nullptr);
    80cc:	13a00001 	movne	r0, #1
  print_lines = print_words = print_chars = print_bytes = false;
    80d0:	e1a01004 	mov	r1, r4
    80d4:	e5c4300a 	strb	r3, [r4, #10]
  total_lines = total_words = total_chars = total_bytes = max_line_length = 0;
    80d8:	e3a02000 	mov	r2, #0
  print_lines = print_words = print_chars = print_bytes = false;
    80dc:	e5c43009 	strb	r3, [r4, #9]
  char *files_from = nullptr;
    80e0:	e1a0b003 	mov	fp, r3
  print_lines = print_words = print_chars = print_bytes = false;
    80e4:	e5c43008 	strb	r3, [r4, #8]
  while ((optc = getopt_long (argc, argv, "clLmw", longopts, nullptr)) != -1)
    80e8:	e1a08003 	mov	r8, r3
  print_lines = print_words = print_chars = print_bytes = false;
    80ec:	e5c43000 	strb	r3, [r4]
  print_linelength = false;
    80f0:	e5c4300b 	strb	r3, [r4, #11]
  total_lines = total_words = total_chars = total_bytes = max_line_length = 0;
    80f4:	e3a03000 	mov	r3, #0
  posixly_correct = (getenv ("POSIXLY_CORRECT") != nullptr);
    80f8:	e5c40010 	strb	r0, [r4, #16]
  total_lines = total_words = total_chars = total_bytes = max_line_length = 0;
    80fc:	e3094ba8 	movw	r4, #39848	@ 0x9ba8
    8100:	e3404002 	movt	r4, #2
    8104:	e1c125f8 	strd	r2, [r1, #88]	@ 0x58
  while ((optc = getopt_long (argc, argv, "clLmw", longopts, nullptr)) != -1)
    8108:	e2849058 	add	r9, r4, #88	@ 0x58
  total_lines = total_words = total_chars = total_bytes = max_line_length = 0;
    810c:	e1c124f8 	strd	r2, [r1, #72]	@ 0x48
    8110:	e1c123f8 	strd	r2, [r1, #56]	@ 0x38
    8114:	e1c122f8 	strd	r2, [r1, #40]	@ 0x28
    8118:	e1c121f8 	strd	r2, [r1, #24]
  while ((optc = getopt_long (argc, argv, "clLmw", longopts, nullptr)) != -1)
    811c:	e1a03009 	mov	r3, r9
    8120:	e1a02007 	mov	r2, r7
    8124:	e1a01005 	mov	r1, r5
    8128:	e1a00006 	mov	r0, r6
    812c:	e58d8000 	str	r8, [sp]
    8130:	eb000c6b 	bl	b2e4 <rpl_getopt_long>
    8134:	e3700001 	cmn	r0, #1
    8138:	0a000073 	beq	830c <main+0x2cc>
    switch (optc)
    813c:	e3500077 	cmp	r0, #119	@ 0x77
    8140:	ca00002a 	bgt	81f0 <main+0x1b0>
    8144:	e3500062 	cmp	r0, #98	@ 0x62
    8148:	da000032 	ble	8218 <main+0x1d8>
    814c:	e2400063 	sub	r0, r0, #99	@ 0x63
    8150:	e3500014 	cmp	r0, #20
    8154:	979ff100 	ldrls	pc, [pc, r0, lsl #2]
    8158:	ea00002c 	b	8210 <main+0x1d0>
    815c:	000081e0 	.word	0x000081e0
    8160:	00008210 	.word	0x00008210
    8164:	00008210 	.word	0x00008210
    8168:	00008210 	.word	0x00008210
    816c:	00008210 	.word	0x00008210
    8170:	00008210 	.word	0x00008210
    8174:	00008210 	.word	0x00008210
    8178:	00008210 	.word	0x00008210
    817c:	00008210 	.word	0x00008210
    8180:	000081d0 	.word	0x000081d0
    8184:	000081c0 	.word	0x000081c0
    8188:	00008210 	.word	0x00008210
    818c:	00008210 	.word	0x00008210
    8190:	00008210 	.word	0x00008210
    8194:	00008210 	.word	0x00008210
    8198:	00008210 	.word	0x00008210
    819c:	00008210 	.word	0x00008210
    81a0:	00008210 	.word	0x00008210
    81a4:	00008210 	.word	0x00008210
    81a8:	00008210 	.word	0x00008210
    81ac:	000081b0 	.word	0x000081b0
      case 'l':
        print_lines = true;
        break;

      case 'w':
        print_words = true;
    81b0:	e59d2024 	ldr	r2, [sp, #36]	@ 0x24
    81b4:	e3a03001 	mov	r3, #1
    81b8:	e5c23008 	strb	r3, [r2, #8]
        break;
    81bc:	eaffffd6 	b	811c <main+0xdc>
        print_chars = true;
    81c0:	e59d2024 	ldr	r2, [sp, #36]	@ 0x24
    81c4:	e3a03001 	mov	r3, #1
    81c8:	e5c23009 	strb	r3, [r2, #9]
        break;
    81cc:	eaffffd2 	b	811c <main+0xdc>
        print_lines = true;
    81d0:	e59d2024 	ldr	r2, [sp, #36]	@ 0x24
    81d4:	e3a03001 	mov	r3, #1
    81d8:	e5c23000 	strb	r3, [r2]
        break;
    81dc:	eaffffce 	b	811c <main+0xdc>
        print_bytes = true;
    81e0:	e59d2024 	ldr	r2, [sp, #36]	@ 0x24
    81e4:	e3a03001 	mov	r3, #1
    81e8:	e5c2300a 	strb	r3, [r2, #10]
        break;
    81ec:	eaffffca 	b	811c <main+0xdc>
    switch (optc)
    81f0:	e3003101 	movw	r3, #257	@ 0x101
    81f4:	e1500003 	cmp	r0, r3
    81f8:	0a00003b 	beq	82ec <main+0x2ac>
    81fc:	e3003102 	movw	r3, #258	@ 0x102
    8200:	e1500003 	cmp	r0, r3
    8204:	0a000024 	beq	829c <main+0x25c>
    8208:	e3500c01 	cmp	r0, #256	@ 0x100
    820c:	0affffc2 	beq	811c <main+0xdc>
      if (optind < argc)
        {
          error (0, 0, _("extra operand %s"), quoteaf (argv[optind]));
          fprintf (stderr, "%s\n",
                   _("file operands cannot be combined with --files0-from"));
          usage (EXIT_FAILURE);
    8210:	e3a00001 	mov	r0, #1
    8214:	eb000540 	bl	971c <usage>
    switch (optc)
    8218:	e3700002 	cmn	r0, #2
    821c:	0a000242 	beq	8b2c <main+0xaec>
    8220:	e350004c 	cmp	r0, #76	@ 0x4c
    8224:	0a000034 	beq	82fc <main+0x2bc>
    8228:	e3700003 	cmn	r0, #3
    822c:	1afffff7 	bne	8210 <main+0x1d0>
      case_GETOPT_VERSION_CHAR (PROGRAM_NAME, AUTHORS);
    8230:	e59a2000 	ldr	r2, [sl]
    8234:	e308192c 	movw	r1, #35116	@ 0x892c
    8238:	e3401002 	movt	r1, #2
    823c:	e30b300c 	movw	r3, #45068	@ 0xb00c
    8240:	e3403002 	movt	r3, #2
    8244:	e1a00001 	mov	r0, r1
    8248:	e5925008 	ldr	r5, [r2, #8]
    824c:	e5936000 	ldr	r6, [r3]
    8250:	eb000cf8 	bl	b638 <proper_name_lite>
    8254:	e3081938 	movw	r1, #35128	@ 0x8938
    8258:	e1a04000 	mov	r4, r0
    825c:	e3401002 	movt	r1, #2
    8260:	e1a00001 	mov	r0, r1
    8264:	eb000cf3 	bl	b638 <proper_name_lite>
    8268:	e1a01000 	mov	r1, r0
    826c:	e3082848 	movw	r2, #34888	@ 0x8848
    8270:	e58d1004 	str	r1, [sp, #4]
    8274:	e3081360 	movw	r1, #33632	@ 0x8360
    8278:	e1a00005 	mov	r0, r5
    827c:	e1a03006 	mov	r3, r6
    8280:	e3402002 	movt	r2, #2
    8284:	e3401002 	movt	r1, #2
    8288:	e58d8008 	str	r8, [sp, #8]
    828c:	e58d4000 	str	r4, [sp]
    8290:	eb001703 	bl	dea4 <version_etc>
    8294:	e3a00000 	mov	r0, #0
    8298:	eb00393f 	bl	1679c <exit>
        total_mode = XARGMATCH ("--total", optarg, total_args, total_types);
    829c:	e30b3010 	movw	r3, #45072	@ 0xb010
    82a0:	e30b23e0 	movw	r2, #46048	@ 0xb3e0
    82a4:	e3403002 	movt	r3, #2
    82a8:	e3402002 	movt	r2, #2
    82ac:	e5933000 	ldr	r3, [r3]
    82b0:	e3080924 	movw	r0, #35108	@ 0x8924
    82b4:	e3400002 	movt	r0, #2
    82b8:	e58d3004 	str	r3, [sp, #4]
    82bc:	e59f390c 	ldr	r3, [pc, #2316]	@ 8bd0 <main+0xb90>
    82c0:	e5921000 	ldr	r1, [r2]
    82c4:	e3a02001 	mov	r2, #1
    82c8:	e58d2008 	str	r2, [sp, #8]
    82cc:	e58d2000 	str	r2, [sp]
    82d0:	e2832004 	add	r2, r3, #4
    82d4:	eb000667 	bl	9c78 <__xargmatch_internal>
    82d8:	e0840000 	add	r0, r4, r0
    82dc:	e59d2024 	ldr	r2, [sp, #36]	@ 0x24
    82e0:	e5d03040 	ldrb	r3, [r0, #64]	@ 0x40
    82e4:	e5c23011 	strb	r3, [r2, #17]
        break;
    82e8:	eaffff8b 	b	811c <main+0xdc>
        files_from = optarg;
    82ec:	e30b33e0 	movw	r3, #46048	@ 0xb3e0
    82f0:	e3403002 	movt	r3, #2
    82f4:	e593b000 	ldr	fp, [r3]
        break;
    82f8:	eaffff87 	b	811c <main+0xdc>
        print_linelength = true;
    82fc:	e59d2024 	ldr	r2, [sp, #36]	@ 0x24
    8300:	e3a03001 	mov	r3, #1
    8304:	e5c2300b 	strb	r3, [r2, #11]
        break;
    8308:	eaffff83 	b	811c <main+0xdc>
  if (! (print_lines || print_words || print_chars || print_bytes
    830c:	e59d2024 	ldr	r2, [sp, #36]	@ 0x24
    8310:	e5d23000 	ldrb	r3, [r2]
    8314:	e3530000 	cmp	r3, #0
    8318:	1a00000e 	bne	8358 <main+0x318>
    831c:	e5d23008 	ldrb	r3, [r2, #8]
    8320:	e3530000 	cmp	r3, #0
    8324:	1a00000b 	bne	8358 <main+0x318>
    8328:	e5d23009 	ldrb	r3, [r2, #9]
    832c:	e3530000 	cmp	r3, #0
    8330:	1a000008 	bne	8358 <main+0x318>
    8334:	e5d2300a 	ldrb	r3, [r2, #10]
    8338:	e3530000 	cmp	r3, #0
    833c:	1a000005 	bne	8358 <main+0x318>
    8340:	e5d2300b 	ldrb	r3, [r2, #11]
    8344:	e3530000 	cmp	r3, #0
    print_lines = print_words = print_bytes = true;
    8348:	03a03001 	moveq	r3, #1
    834c:	05c2300a 	strbeq	r3, [r2, #10]
    8350:	05c23008 	strbeq	r3, [r2, #8]
    8354:	05c23000 	strbeq	r3, [r2]
      if (optind < argc)
    8358:	e30b3018 	movw	r3, #45080	@ 0xb018
  if (files_from)
    835c:	e35b0000 	cmp	fp, #0
      if (optind < argc)
    8360:	e3403002 	movt	r3, #2
    8364:	e5937000 	ldr	r7, [r3]
  if (files_from)
    8368:	0a000069 	beq	8514 <main+0x4d4>
      if (optind < argc)
    836c:	e1570006 	cmp	r7, r6
    8370:	ba0001f9 	blt	8b5c <main+0xb1c>
        }

      if (STREQ (files_from, "-"))
    8374:	e3081998 	movw	r1, #35224	@ 0x8998
    8378:	e1a0000b 	mov	r0, fp
    837c:	e3401002 	movt	r1, #2
    8380:	fa005d96 	blx	1f9e0 <strcmp>
    8384:	e3500000 	cmp	r0, #0
    8388:	1a00016a 	bne	8938 <main+0x8f8>
        stream = stdin;
    838c:	e59a3000 	ldr	r3, [sl]
    8390:	e5935004 	ldr	r5, [r3, #4]
        }

      /* Read the file list into RAM if we can detect its size and that
         size is reasonable.  Otherwise, we'll read a name at a time.  */
      struct stat st;
      if (fstat (fileno (stream), &st) == 0
    8394:	e1a00005 	mov	r0, r5
    8398:	eb003f8d 	bl	181d4 <fileno>
    839c:	e28d3040 	add	r3, sp, #64	@ 0x40
    83a0:	e1a01003 	mov	r1, r3
    83a4:	e58d3028 	str	r3, [sp, #40]	@ 0x28
    83a8:	eb005c96 	bl	1f608 <fstat>
    83ac:	e3500000 	cmp	r0, #0
    83b0:	1a000003 	bne	83c4 <main+0x384>
          && S_ISREG (st.st_mode)
    83b4:	e59d3044 	ldr	r3, [sp, #68]	@ 0x44
    83b8:	e2033a0f 	and	r3, r3, #61440	@ 0xf000
    83bc:	e3530902 	cmp	r3, #32768	@ 0x8000
    83c0:	0a0001b0 	beq	8a88 <main+0xa48>
        }
      else
        {
          files = nullptr;
          nfiles = 0;
          ai = argv_iter_init_stream (stream);
    83c4:	e1a00005 	mov	r0, r5
    83c8:	eb000689 	bl	9df4 <argv_iter_init_stream>
      files = (optind < argc ? argv + optind : stdin_only);
      nfiles = (optind < argc ? argc - optind : 1);
      ai = argv_iter_init_argv (files);
    }

  if (!ai)
    83cc:	e2508000 	subs	r8, r0, #0
    83d0:	0a0001d7 	beq	8b34 <main+0xaf4>
  struct fstatus *fstatus = xnmalloc (nfiles ? nfiles : 1, sizeof *fstatus);
    83d4:	e3a01060 	mov	r1, #96	@ 0x60
    83d8:	e3a00001 	mov	r0, #1
  bool read_tokens = false;
    83dc:	e3a04000 	mov	r4, #0
  struct fstatus *fstatus = xnmalloc (nfiles ? nfiles : 1, sizeof *fstatus);
    83e0:	eb001722 	bl	e070 <xnmalloc>
    83e4:	e1a07004 	mov	r7, r4
    83e8:	e1a09000 	mov	r9, r0
    xalloc_die ();

  fstatus = get_input_fstatus (nfiles, files);
  if (total_mode == total_only)
    83ec:	e59d3024 	ldr	r3, [sp, #36]	@ 0x24
    fstatus[0].failed = 1;
    83f0:	e3a05001 	mov	r5, #1
    83f4:	e5895000 	str	r5, [r9]
  if (total_mode == total_only)
    83f8:	e5d33011 	ldrb	r3, [r3, #17]
    83fc:	e3530002 	cmp	r3, #2
    8400:	0a000001 	beq	840c <main+0x3cc>
  if (0 < nfiles && fstatus[0].failed <= 0)
    8404:	e3570000 	cmp	r7, #0
    8408:	1a000118 	bne	8870 <main+0x830>
    number_width = 1;  /* No extra padding, since no alignment requirement.  */
  else
    number_width = compute_number_width (nfiles, fstatus);
    840c:	e59d3024 	ldr	r3, [sp, #36]	@ 0x24
  if (! file || STREQ (file, "-"))
    8410:	e3081998 	movw	r1, #35224	@ 0x8998
            {
              /* Using the standard 'filename:line-number:' prefix here is
                 not totally appropriate, since NUL is the separator, not NL,
                 but it might be better than nothing.  */
              unsigned long int file_number = argv_iter_n_args (ai);
              error (0, 0, "%s:%lu: %s", quotef (files_from),
    8414:	e308ca5c 	movw	ip, #35420	@ 0x8a5c
    8418:	e3082a7c 	movw	r2, #35452	@ 0x8a7c
  if (! file || STREQ (file, "-"))
    841c:	e3401002 	movt	r1, #2
              error (0, 0, "%s:%lu: %s", quotef (files_from),
    8420:	e340c002 	movt	ip, #2
    8424:	e3402002 	movt	r2, #2
    number_width = compute_number_width (nfiles, fstatus);
    8428:	e3a06000 	mov	r6, #0
    842c:	e3a0a001 	mov	sl, #1
    8430:	e5835004 	str	r5, [r3, #4]
    8434:	e58d4038 	str	r4, [sp, #56]	@ 0x38
    8438:	e58d102c 	str	r1, [sp, #44]	@ 0x2c
    843c:	e58dc030 	str	ip, [sp, #48]	@ 0x30
    8440:	e58d2034 	str	r2, [sp, #52]	@ 0x34
    8444:	ea000021 	b	84d0 <main+0x490>
      if (files_from && STREQ (files_from, "-") && STREQ (file_name, "-"))
    8448:	e5db3001 	ldrb	r3, [fp, #1]
    844c:	e3530000 	cmp	r3, #0
    8450:	1a000028 	bne	84f8 <main+0x4b8>
    8454:	e59d102c 	ldr	r1, [sp, #44]	@ 0x2c
    8458:	fa005d60 	blx	1f9e0 <strcmp>
    845c:	e2504000 	subs	r4, r0, #0
    8460:	0a00005b 	beq	85d4 <main+0x594>
      if (!file_name[0])
    8464:	e5d53000 	ldrb	r3, [r5]
    8468:	e3530000 	cmp	r3, #0
    846c:	0a000064 	beq	8604 <main+0x5c4>
        }

      if (skip_file)
        ok = false;
      else
        ok &= wc_file (file_name, &fstatus[nfiles ? i : 0]);
    8470:	e3570000 	cmp	r7, #0
    8474:	01a04009 	moveq	r4, r9
    8478:	0a0000cb 	beq	87ac <main+0x76c>
    847c:	e1a04006 	mov	r4, r6
  if (! file || STREQ (file, "-"))
    8480:	e59d102c 	ldr	r1, [sp, #44]	@ 0x2c
    8484:	e1a00005 	mov	r0, r5
    8488:	fa005d54 	blx	1f9e0 <strcmp>
    848c:	e3500000 	cmp	r0, #0
        ok &= wc_file (file_name, &fstatus[nfiles ? i : 0]);
    8490:	e0894004 	add	r4, r9, r4
  if (! file || STREQ (file, "-"))
    8494:	1a0000c4 	bne	87ac <main+0x76c>
      have_read_stdin = true;
    8498:	e59dc024 	ldr	ip, [sp, #36]	@ 0x24
    849c:	e3a03001 	mov	r3, #1
      return wc (STDIN_FILENO, file, fstatus, -1);
    84a0:	e1a02004 	mov	r2, r4
    84a4:	e1a01005 	mov	r1, r5
      have_read_stdin = true;
    84a8:	e5cc3064 	strb	r3, [ip, #100]	@ 0x64
      return wc (STDIN_FILENO, file, fstatus, -1);
    84ac:	e3e03000 	mvn	r3, #0
    84b0:	eb000283 	bl	8ec4 <wc>
    84b4:	e1a04000 	mov	r4, r0
    84b8:	e004400a 	and	r4, r4, sl
    84bc:	e6efa074 	uxtb	sl, r4

      if (! nfiles)
    84c0:	e3570000 	cmp	r7, #0
        fstatus[0].failed = 1;
    84c4:	e2866060 	add	r6, r6, #96	@ 0x60
    84c8:	03a03001 	moveq	r3, #1
    84cc:	05893000 	streq	r3, [r9]
      char *file_name = argv_iter (ai, &ai_err);
    84d0:	e59d1028 	ldr	r1, [sp, #40]	@ 0x28
    84d4:	e1a00008 	mov	r0, r8
    84d8:	eb000652 	bl	9e28 <argv_iter>
      if (!file_name)
    84dc:	e2505000 	subs	r5, r0, #0
    84e0:	0a000062 	beq	8670 <main+0x630>
      if (files_from && STREQ (files_from, "-") && STREQ (file_name, "-"))
    84e4:	e35b0000 	cmp	fp, #0
    84e8:	0a000056 	beq	8648 <main+0x608>
    84ec:	e5db3000 	ldrb	r3, [fp]
    84f0:	e353002d 	cmp	r3, #45	@ 0x2d
    84f4:	0affffd3 	beq	8448 <main+0x408>
      if (!file_name[0])
    84f8:	e5d53000 	ldrb	r3, [r5]
    84fc:	e3530000 	cmp	r3, #0
    8500:	0a00003f 	beq	8604 <main+0x5c4>
        ok &= wc_file (file_name, &fstatus[nfiles ? i : 0]);
    8504:	e3570000 	cmp	r7, #0
    8508:	11a04006 	movne	r4, r6
    850c:	03a04000 	moveq	r4, #0
    8510:	eaffffda 	b	8480 <main+0x440>
      files = (optind < argc ? argv + optind : stdin_only);
    8514:	e1570006 	cmp	r7, r6
    8518:	a59f56b4 	ldrge	r5, [pc, #1716]	@ 8bd4 <main+0xb94>
    851c:	b0855107 	addlt	r5, r5, r7, lsl #2
      nfiles = (optind < argc ? argc - optind : 1);
    8520:	a3a07001 	movge	r7, #1
    8524:	b0467007 	sublt	r7, r6, r7
      ai = argv_iter_init_argv (files);
    8528:	e1a00005 	mov	r0, r5
    852c:	eb000626 	bl	9dcc <argv_iter_init_argv>
  if (!ai)
    8530:	e2508000 	subs	r8, r0, #0
    8534:	0a00017e 	beq	8b34 <main+0xaf4>
  struct fstatus *fstatus = xnmalloc (nfiles ? nfiles : 1, sizeof *fstatus);
    8538:	e3a01060 	mov	r1, #96	@ 0x60
    853c:	e1a00007 	mov	r0, r7
    8540:	eb0016ca 	bl	e070 <xnmalloc>
  bool read_tokens = false;
    8544:	e3a04000 	mov	r4, #0
  struct fstatus *fstatus = xnmalloc (nfiles ? nfiles : 1, sizeof *fstatus);
    8548:	e1a09000 	mov	r9, r0
  if (nfiles == 0
    854c:	e28d3040 	add	r3, sp, #64	@ 0x40
    8550:	e58d3028 	str	r3, [sp, #40]	@ 0x28
      || (nfiles == 1
    8554:	e3570001 	cmp	r7, #1
    8558:	0a000134 	beq	8a30 <main+0x9f0>
        fstatus[i].failed = (! file[i] || STREQ (file[i], "-")
    855c:	e3083998 	movw	r3, #35224	@ 0x8998
    8560:	e289a008 	add	sl, r9, #8
    8564:	e3403002 	movt	r3, #2
  struct fstatus *fstatus = xnmalloc (nfiles ? nfiles : 1, sizeof *fstatus);
    8568:	e58d402c 	str	r4, [sp, #44]	@ 0x2c
    856c:	e2455004 	sub	r5, r5, #4
    8570:	e1a0400a 	mov	r4, sl
    8574:	e3a06000 	mov	r6, #0
    8578:	e1a0a003 	mov	sl, r3
    857c:	e58d8030 	str	r8, [sp, #48]	@ 0x30
    8580:	ea000007 	b	85a4 <main+0x564>
                             ? fstat (STDIN_FILENO, &fstatus[i].st)
    8584:	e1a01004 	mov	r1, r4
    8588:	e3a00000 	mov	r0, #0
    858c:	eb005c1d 	bl	1f608 <fstat>
      for (size_t i = 0; i < nfiles; i++)
    8590:	e2866001 	add	r6, r6, #1
        fstatus[i].failed = (! file[i] || STREQ (file[i], "-")
    8594:	e5040008 	str	r0, [r4, #-8]
      for (size_t i = 0; i < nfiles; i++)
    8598:	e1560007 	cmp	r6, r7
    859c:	e2844060 	add	r4, r4, #96	@ 0x60
    85a0:	2a0000ac 	bcs	8858 <main+0x818>
        fstatus[i].failed = (! file[i] || STREQ (file[i], "-")
    85a4:	e5b58004 	ldr	r8, [r5, #4]!
                             : stat (file[i], &fstatus[i].st));
    85a8:	e3580000 	cmp	r8, #0
    85ac:	0afffff4 	beq	8584 <main+0x544>
        fstatus[i].failed = (! file[i] || STREQ (file[i], "-")
    85b0:	e1a0100a 	mov	r1, sl
    85b4:	e1a00008 	mov	r0, r8
    85b8:	fa005d08 	blx	1f9e0 <strcmp>
    85bc:	e3500000 	cmp	r0, #0
    85c0:	0affffef 	beq	8584 <main+0x544>
                             : stat (file[i], &fstatus[i].st));
    85c4:	e1a00008 	mov	r0, r8
    85c8:	e1a01004 	mov	r1, r4
    85cc:	eb00154a 	bl	dafc <rpl_stat>
    85d0:	eaffffee 	b	8590 <main+0x550>
          error (0, 0, _("when reading file names from stdin, "
    85d4:	e1a01005 	mov	r1, r5
    85d8:	e3a00004 	mov	r0, #4
    85dc:	eb001319 	bl	d248 <quotearg_style>
    85e0:	e3082a1c 	movw	r2, #35356	@ 0x8a1c
    85e4:	e1a03000 	mov	r3, r0
    85e8:	e3402002 	movt	r2, #2
    85ec:	e1a01004 	mov	r1, r4
    85f0:	e1a00004 	mov	r0, r4
    85f4:	eb0006cc 	bl	a12c <error>
      if (!file_name[0])
    85f8:	e5d53000 	ldrb	r3, [r5]
    85fc:	e3530000 	cmp	r3, #0
    8600:	1a00000e 	bne	8640 <main+0x600>
              unsigned long int file_number = argv_iter_n_args (ai);
    8604:	e1a00008 	mov	r0, r8
    8608:	eb00062f 	bl	9ecc <argv_iter_n_args>
              error (0, 0, "%s:%lu: %s", quotef (files_from),
    860c:	e1a0200b 	mov	r2, fp
              unsigned long int file_number = argv_iter_n_args (ai);
    8610:	e1a04000 	mov	r4, r0
              error (0, 0, "%s:%lu: %s", quotef (files_from),
    8614:	e3a01003 	mov	r1, #3
    8618:	e3a00000 	mov	r0, #0
    861c:	eb0013a8 	bl	d4c4 <quotearg_n_style_colon>
    8620:	e59d2030 	ldr	r2, [sp, #48]	@ 0x30
    8624:	e3a01000 	mov	r1, #0
    8628:	e1a03000 	mov	r3, r0
    862c:	e58d4000 	str	r4, [sp]
    8630:	e1a00001 	mov	r0, r1
    8634:	e58d2004 	str	r2, [sp, #4]
    8638:	e59d2034 	ldr	r2, [sp, #52]	@ 0x34
    863c:	eb0006ba 	bl	a12c <error>
        ok = false;
    8640:	e3a0a000 	mov	sl, #0
    8644:	eaffff9d 	b	84c0 <main+0x480>
      if (!file_name[0])
    8648:	e5d53000 	ldrb	r3, [r5]
    864c:	e3530000 	cmp	r3, #0
    8650:	1affffab 	bne	8504 <main+0x4c4>
            error (0, 0, "%s", _("invalid zero-length file name"));
    8654:	e3082bfc 	movw	r2, #35836	@ 0x8bfc
    8658:	e59d3030 	ldr	r3, [sp, #48]	@ 0x30
    865c:	e3402002 	movt	r2, #2
    8660:	e1a0100b 	mov	r1, fp
    8664:	e1a0000b 	mov	r0, fp
    8668:	eb0006af 	bl	a12c <error>
    866c:	eafffff3 	b	8640 <main+0x600>
          switch (ai_err)
    8670:	e5dd3040 	ldrb	r3, [sp, #64]	@ 0x40
    8674:	e59d4038 	ldr	r4, [sp, #56]	@ 0x38
    8678:	e3530003 	cmp	r3, #3
    867c:	0a00012c 	beq	8b34 <main+0xaf4>
    8680:	e3530004 	cmp	r3, #4
    8684:	0a000065 	beq	8820 <main+0x7e0>
    8688:	e3530002 	cmp	r3, #2
    868c:	1a000143 	bne	8ba0 <main+0xb60>
 argv_iter_done:

  /* No arguments on the command line is fine.  That means read from stdin.
     However, no arguments on the --files0-from input stream is an error
     means don't read anything.  */
  if (ok && !files_from && argv_iter_n_args (ai) == 0)
    8690:	e35b0000 	cmp	fp, #0
    8694:	13a06000 	movne	r6, #0
    8698:	020a6001 	andeq	r6, sl, #1
    869c:	e3560000 	cmp	r6, #0
    86a0:	0a000004 	beq	86b8 <main+0x678>
    86a4:	e1a00008 	mov	r0, r8
    86a8:	eb000607 	bl	9ecc <argv_iter_n_args>
    86ac:	e3500000 	cmp	r0, #0
    86b0:	11a0a006 	movne	sl, r6
    86b4:	0a0000ea 	beq	8a64 <main+0xa24>
    ok &= wc_file (nullptr, &fstatus[0]);

  if (read_tokens)
    86b8:	e3540000 	cmp	r4, #0
    86bc:	1a00007a 	bne	88ac <main+0x86c>
    readtokens0_free (&tok);

  if (total_mode != total_never
    86c0:	e59d3024 	ldr	r3, [sp, #36]	@ 0x24
    86c4:	e5d33011 	ldrb	r3, [r3, #17]
    86c8:	e3530003 	cmp	r3, #3
    86cc:	0a000029 	beq	8778 <main+0x738>
      && (total_mode != total_auto || 1 < argv_iter_n_args (ai)))
    86d0:	e3530000 	cmp	r3, #0
    86d4:	1a000003 	bne	86e8 <main+0x6a8>
    86d8:	e1a00008 	mov	r0, r8
    86dc:	eb0005fa 	bl	9ecc <argv_iter_n_args>
    86e0:	e3500001 	cmp	r0, #1
    86e4:	9a000023 	bls	8778 <main+0x738>
    {
      if (total_lines_overflow)
    86e8:	e59d2024 	ldr	r2, [sp, #36]	@ 0x24
    86ec:	e5923020 	ldr	r3, [r2, #32]
    86f0:	e5922024 	ldr	r2, [r2, #36]	@ 0x24
    86f4:	e1933002 	orrs	r3, r3, r2
    86f8:	1a0000c1 	bne	8a04 <main+0x9c4>
        {
          total_lines = UINTMAX_MAX;
          error (0, EOVERFLOW, _("total lines"));
          ok = false;
        }
      if (total_words_overflow)
    86fc:	e59d2024 	ldr	r2, [sp, #36]	@ 0x24
    8700:	e5923030 	ldr	r3, [r2, #48]	@ 0x30
    8704:	e5922034 	ldr	r2, [r2, #52]	@ 0x34
    8708:	e1933002 	orrs	r3, r3, r2
    870c:	1a0000b1 	bne	89d8 <main+0x998>
        {
          total_words = UINTMAX_MAX;
          error (0, EOVERFLOW, _("total words"));
          ok = false;
        }
      if (total_chars_overflow)
    8710:	e59d2024 	ldr	r2, [sp, #36]	@ 0x24
    8714:	e5923040 	ldr	r3, [r2, #64]	@ 0x40
    8718:	e5922044 	ldr	r2, [r2, #68]	@ 0x44
    871c:	e1933002 	orrs	r3, r3, r2
    8720:	1a0000a1 	bne	89ac <main+0x96c>
        {
          total_chars = UINTMAX_MAX;
          error (0, EOVERFLOW, _("total characters"));
          ok = false;
        }
      if (total_bytes_overflow)
    8724:	e59d2024 	ldr	r2, [sp, #36]	@ 0x24
    8728:	e5923050 	ldr	r3, [r2, #80]	@ 0x50
    872c:	e5922054 	ldr	r2, [r2, #84]	@ 0x54
    8730:	e1933002 	orrs	r3, r3, r2
    8734:	1a000091 	bne	8980 <main+0x940>
          total_bytes = UINTMAX_MAX;
          error (0, EOVERFLOW, _("total bytes"));
          ok = false;
        }

      write_counts (total_lines, total_words, total_chars, total_bytes,
    8738:	e59dc024 	ldr	ip, [sp, #36]	@ 0x24
    873c:	e308390c 	movw	r3, #35084	@ 0x890c
    8740:	e3403002 	movt	r3, #2
    8744:	e5dc2011 	ldrb	r2, [ip, #17]
    8748:	e3520002 	cmp	r2, #2
    874c:	11a05003 	movne	r5, r3
    8750:	e58d5018 	str	r5, [sp, #24]
    8754:	e1cc03d8 	ldrd	r0, [ip, #56]	@ 0x38
    8758:	e1cc22d8 	ldrd	r2, [ip, #40]	@ 0x28
    875c:	e1cd00f0 	strd	r0, [sp]
    8760:	e1cc04d8 	ldrd	r0, [ip, #72]	@ 0x48
    8764:	e1cd00f8 	strd	r0, [sp, #8]
    8768:	e1cc05d8 	ldrd	r0, [ip, #88]	@ 0x58
    876c:	e1cd01f0 	strd	r0, [sp, #16]
    8770:	e1cc01d8 	ldrd	r0, [ip, #24]
    8774:	eb000161 	bl	8d00 <write_counts>
                    max_line_length,
                    total_mode != total_only ? _("total") : nullptr);
    }

  argv_iter_free (ai);
    8778:	e1a00008 	mov	r0, r8
    877c:	eb0005d9 	bl	9ee8 <argv_iter_free>

  free (fstatus);
    8780:	e1a00009 	mov	r0, r9
    8784:	eb000733 	bl	a458 <rpl_free>

  if (have_read_stdin && close (STDIN_FILENO) != 0)
    8788:	e59d3024 	ldr	r3, [sp, #36]	@ 0x24
    878c:	e5d33064 	ldrb	r3, [r3, #100]	@ 0x64
    8790:	e3530000 	cmp	r3, #0
    8794:	1a00003a 	bne	8884 <main+0x844>
    error (EXIT_FAILURE, errno, "-");

  return ok ? EXIT_SUCCESS : EXIT_FAILURE;
    8798:	e22a0001 	eor	r0, sl, #1
    879c:	e6ef0070 	uxtb	r0, r0
}
    87a0:	e28ddf4b 	add	sp, sp, #300	@ 0x12c
    87a4:	ecbd8b04 	vpop	{d8-d9}
    87a8:	e8bd8ff0 	pop	{r4, r5, r6, r7, r8, r9, sl, fp, pc}
      int fd = open (file, O_RDONLY | O_BINARY);
    87ac:	e3a01000 	mov	r1, #0
    87b0:	e1a00005 	mov	r0, r5
    87b4:	eb004c80 	bl	1b9bc <open>
      if (fd == -1)
    87b8:	e3700001 	cmn	r0, #1
      int fd = open (file, O_RDONLY | O_BINARY);
    87bc:	e58d003c 	str	r0, [sp, #60]	@ 0x3c
      if (fd == -1)
    87c0:	0a000008 	beq	87e8 <main+0x7a8>
          bool ok = wc (fd, file, fstatus, 0);
    87c4:	e1a02004 	mov	r2, r4
    87c8:	e3a03000 	mov	r3, #0
    87cc:	e1a01005 	mov	r1, r5
    87d0:	eb0001bb 	bl	8ec4 <wc>
    87d4:	e1a04000 	mov	r4, r0
          if (close (fd) != 0)
    87d8:	e59d003c 	ldr	r0, [sp, #60]	@ 0x3c
    87dc:	eb005bcf 	bl	1f720 <close>
    87e0:	e3500000 	cmp	r0, #0
    87e4:	0affff33 	beq	84b8 <main+0x478>
              error (0, errno, "%s", quotef (file));
    87e8:	eb004c09 	bl	1b814 <__errno>
    87ec:	e5904000 	ldr	r4, [r0]
    87f0:	e1a02005 	mov	r2, r5
    87f4:	e3a01003 	mov	r1, #3
    87f8:	e3a00000 	mov	r0, #0
    87fc:	eb001330 	bl	d4c4 <quotearg_n_style_colon>
    8800:	e3082bfc 	movw	r2, #35836	@ 0x8bfc
    8804:	e1a03000 	mov	r3, r0
    8808:	e1a01004 	mov	r1, r4
    880c:	e3402002 	movt	r2, #2
    8810:	e3a00000 	mov	r0, #0
          return false;
    8814:	e3a04000 	mov	r4, #0
              error (0, errno, "%s", quotef (file));
    8818:	eb000643 	bl	a12c <error>
              return false;
    881c:	eaffff25 	b	84b8 <main+0x478>
              error (0, errno, _("%s: read error"),
    8820:	eb004bfb 	bl	1b814 <__errno>
    8824:	e5906000 	ldr	r6, [r0]
    8828:	e1a0200b 	mov	r2, fp
    882c:	e3a01003 	mov	r1, #3
    8830:	e1a00005 	mov	r0, r5
    8834:	eb001322 	bl	d4c4 <quotearg_n_style_colon>
    8838:	e30829d8 	movw	r2, #35288	@ 0x89d8
    883c:	e1a03000 	mov	r3, r0
    8840:	e1a01006 	mov	r1, r6
    8844:	e3402002 	movt	r2, #2
    8848:	e1a00005 	mov	r0, r5
              ok = false;
    884c:	e1a0a005 	mov	sl, r5
              error (0, errno, _("%s: read error"),
    8850:	eb000635 	bl	a12c <error>
  if (ok && !files_from && argv_iter_n_args (ai) == 0)
    8854:	eaffff97 	b	86b8 <main+0x678>
  if (total_mode == total_only)
    8858:	e59d3024 	ldr	r3, [sp, #36]	@ 0x24
    885c:	e59d402c 	ldr	r4, [sp, #44]	@ 0x2c
    8860:	e59d8030 	ldr	r8, [sp, #48]	@ 0x30
    8864:	e5d33011 	ldrb	r3, [r3, #17]
    8868:	e3530002 	cmp	r3, #2
    886c:	0a000002 	beq	887c <main+0x83c>
  if (0 < nfiles && fstatus[0].failed <= 0)
    8870:	e5993000 	ldr	r3, [r9]
    8874:	e3530000 	cmp	r3, #0
    8878:	da00000e 	ble	88b8 <main+0x878>
  if (total_mode == total_only)
    887c:	e3a05001 	mov	r5, #1
    8880:	eafffee1 	b	840c <main+0x3cc>
  if (have_read_stdin && close (STDIN_FILENO) != 0)
    8884:	e3a00000 	mov	r0, #0
    8888:	eb005ba4 	bl	1f720 <close>
    888c:	e3500000 	cmp	r0, #0
    8890:	0affffc0 	beq	8798 <main+0x758>
    error (EXIT_FAILURE, errno, "-");
    8894:	eb004bde 	bl	1b814 <__errno>
    8898:	e3082998 	movw	r2, #35224	@ 0x8998
    889c:	e5901000 	ldr	r1, [r0]
    88a0:	e3402002 	movt	r2, #2
    88a4:	e3a00001 	mov	r0, #1
    88a8:	eb00061f 	bl	a12c <error>
    readtokens0_free (&tok);
    88ac:	e28d0098 	add	r0, sp, #152	@ 0x98
    88b0:	eb00140a 	bl	d8e0 <readtokens0_free>
    88b4:	eaffff81 	b	86c0 <main+0x680>
    88b8:	e3a0c060 	mov	ip, #96	@ 0x60
      uintmax_t regular_total = 0;
    88bc:	e3a00000 	mov	r0, #0
    88c0:	e02c979c 	mla	ip, ip, r7, r9
    88c4:	e1a03009 	mov	r3, r9
      int minimum_width = 1;
    88c8:	e3a06001 	mov	r6, #1
      uintmax_t regular_total = 0;
    88cc:	e1a01000 	mov	r1, r0
        if (! fstatus[i].failed)
    88d0:	e5932000 	ldr	r2, [r3]
    88d4:	e3520000 	cmp	r2, #0
    88d8:	1a000007 	bne	88fc <main+0x8bc>
            if (S_ISREG (fstatus[i].st.st_mode))
    88dc:	e593200c 	ldr	r2, [r3, #12]
    88e0:	e2022a0f 	and	r2, r2, #61440	@ 0xf000
    88e4:	e3520902 	cmp	r2, #32768	@ 0x8000
              minimum_width = 7;
    88e8:	13a06007 	movne	r6, #7
            if (S_ISREG (fstatus[i].st.st_mode))
    88ec:	1a000002 	bne	88fc <main+0x8bc>
              regular_total += fstatus[i].st.st_size;
    88f0:	e5932018 	ldr	r2, [r3, #24]
    88f4:	e0920000 	adds	r0, r2, r0
    88f8:	e0a11fc2 	adc	r1, r1, r2, asr #31
      for (size_t i = 0; i < nfiles; i++)
    88fc:	e2833060 	add	r3, r3, #96	@ 0x60
    8900:	e15c0003 	cmp	ip, r3
    8904:	1afffff1 	bne	88d0 <main+0x890>
  int width = 1;
    8908:	e3a05001 	mov	r5, #1
    890c:	ea000003 	b	8920 <main+0x8e0>
      for (; 10 <= regular_total; regular_total /= 10)
    8910:	e3a0200a 	mov	r2, #10
    8914:	e3a03000 	mov	r3, #0
        width++;
    8918:	e2855001 	add	r5, r5, #1
      for (; 10 <= regular_total; regular_total /= 10)
    891c:	eb003723 	bl	165b0 <__aeabi_uldivmod>
    8920:	e350000a 	cmp	r0, #10
    8924:	e2d13000 	sbcs	r3, r1, #0
    8928:	2afffff8 	bcs	8910 <main+0x8d0>
      if (width < minimum_width)
    892c:	e1550006 	cmp	r5, r6
    8930:	b1a05006 	movlt	r5, r6
    8934:	eafffeb4 	b	840c <main+0x3cc>
          stream = fopen (files_from, "r");
    8938:	e3091258 	movw	r1, #37464	@ 0x9258
    893c:	e1a0000b 	mov	r0, fp
    8940:	e3401002 	movt	r1, #2
    8944:	eb0016aa 	bl	e3f4 <rpl_fopen>
          if (stream == nullptr)
    8948:	e2505000 	subs	r5, r0, #0
    894c:	1afffe90 	bne	8394 <main+0x354>
            error (EXIT_FAILURE, errno, _("cannot open %s for reading"),
    8950:	eb004baf 	bl	1b814 <__errno>
    8954:	e1a03000 	mov	r3, r0
    8958:	e1a0100b 	mov	r1, fp
    895c:	e5934000 	ldr	r4, [r3]
    8960:	e3a00004 	mov	r0, #4
    8964:	eb001237 	bl	d248 <quotearg_style>
    8968:	e308299c 	movw	r2, #35228	@ 0x899c
    896c:	e1a03000 	mov	r3, r0
    8970:	e1a01004 	mov	r1, r4
    8974:	e3402002 	movt	r2, #2
    8978:	e3a00001 	mov	r0, #1
    897c:	eb0005ea 	bl	a12c <error>
          total_bytes = UINTMAX_MAX;
    8980:	e59d3024 	ldr	r3, [sp, #36]	@ 0x24
    8984:	e3e00000 	mvn	r0, #0
    8988:	e3e01000 	mvn	r1, #0
          error (0, EOVERFLOW, _("total bytes"));
    898c:	e3082ab4 	movw	r2, #35508	@ 0x8ab4
    8990:	e3402002 	movt	r2, #2
          ok = false;
    8994:	e3a0a000 	mov	sl, #0
          total_bytes = UINTMAX_MAX;
    8998:	e1c304f8 	strd	r0, [r3, #72]	@ 0x48
          error (0, EOVERFLOW, _("total bytes"));
    899c:	e3a0108b 	mov	r1, #139	@ 0x8b
    89a0:	e3a00000 	mov	r0, #0
    89a4:	eb0005e0 	bl	a12c <error>
          ok = false;
    89a8:	eaffff62 	b	8738 <main+0x6f8>
          total_chars = UINTMAX_MAX;
    89ac:	e59d3024 	ldr	r3, [sp, #36]	@ 0x24
    89b0:	e3e00000 	mvn	r0, #0
    89b4:	e3e01000 	mvn	r1, #0
          error (0, EOVERFLOW, _("total characters"));
    89b8:	e3082aa0 	movw	r2, #35488	@ 0x8aa0
    89bc:	e3402002 	movt	r2, #2
          ok = false;
    89c0:	e3a0a000 	mov	sl, #0
          total_chars = UINTMAX_MAX;
    89c4:	e1c303f8 	strd	r0, [r3, #56]	@ 0x38
          error (0, EOVERFLOW, _("total characters"));
    89c8:	e3a0108b 	mov	r1, #139	@ 0x8b
    89cc:	e3a00000 	mov	r0, #0
    89d0:	eb0005d5 	bl	a12c <error>
          ok = false;
    89d4:	eaffff52 	b	8724 <main+0x6e4>
          total_words = UINTMAX_MAX;
    89d8:	e59d3024 	ldr	r3, [sp, #36]	@ 0x24
    89dc:	e3e00000 	mvn	r0, #0
    89e0:	e3e01000 	mvn	r1, #0
          error (0, EOVERFLOW, _("total words"));
    89e4:	e3082a94 	movw	r2, #35476	@ 0x8a94
    89e8:	e3402002 	movt	r2, #2
          ok = false;
    89ec:	e3a0a000 	mov	sl, #0
          total_words = UINTMAX_MAX;
    89f0:	e1c302f8 	strd	r0, [r3, #40]	@ 0x28
          error (0, EOVERFLOW, _("total words"));
    89f4:	e3a0108b 	mov	r1, #139	@ 0x8b
    89f8:	e3a00000 	mov	r0, #0
    89fc:	eb0005ca 	bl	a12c <error>
          ok = false;
    8a00:	eaffff42 	b	8710 <main+0x6d0>
          total_lines = UINTMAX_MAX;
    8a04:	e59d3024 	ldr	r3, [sp, #36]	@ 0x24
    8a08:	e3e00000 	mvn	r0, #0
    8a0c:	e3e01000 	mvn	r1, #0
          error (0, EOVERFLOW, _("total lines"));
    8a10:	e3082a88 	movw	r2, #35464	@ 0x8a88
    8a14:	e3402002 	movt	r2, #2
          ok = false;
    8a18:	e3a0a000 	mov	sl, #0
          total_lines = UINTMAX_MAX;
    8a1c:	e1c301f8 	strd	r0, [r3, #24]
          error (0, EOVERFLOW, _("total lines"));
    8a20:	e3a0108b 	mov	r1, #139	@ 0x8b
    8a24:	e3a00000 	mov	r0, #0
    8a28:	eb0005bf 	bl	a12c <error>
          ok = false;
    8a2c:	eaffff32 	b	86fc <main+0x6bc>
          && ((print_lines + print_words + print_chars
    8a30:	e59d1024 	ldr	r1, [sp, #36]	@ 0x24
    8a34:	e5d12008 	ldrb	r2, [r1, #8]
    8a38:	e5d13000 	ldrb	r3, [r1]
    8a3c:	e0833002 	add	r3, r3, r2
    8a40:	e5d12009 	ldrb	r2, [r1, #9]
    8a44:	e0833002 	add	r3, r3, r2
               + print_bytes + print_linelength)
    8a48:	e5d1200a 	ldrb	r2, [r1, #10]
    8a4c:	e0833002 	add	r3, r3, r2
    8a50:	e5d1200b 	ldrb	r2, [r1, #11]
    8a54:	e0833002 	add	r3, r3, r2
          && ((print_lines + print_words + print_chars
    8a58:	e3530001 	cmp	r3, #1
    8a5c:	1afffebe 	bne	855c <main+0x51c>
    8a60:	eafffe61 	b	83ec <main+0x3ac>
      have_read_stdin = true;
    8a64:	e59d2024 	ldr	r2, [sp, #36]	@ 0x24
    8a68:	e3a03001 	mov	r3, #1
      return wc (STDIN_FILENO, file, fstatus, -1);
    8a6c:	e1a01005 	mov	r1, r5
      have_read_stdin = true;
    8a70:	e5c23064 	strb	r3, [r2, #100]	@ 0x64
      return wc (STDIN_FILENO, file, fstatus, -1);
    8a74:	e3e03000 	mvn	r3, #0
    8a78:	e1a02009 	mov	r2, r9
    8a7c:	eb000110 	bl	8ec4 <wc>
    8a80:	e1a0a000 	mov	sl, r0
    8a84:	eaffff0b 	b	86b8 <main+0x678>
          && st.st_size <= MIN (10 * 1024 * 1024, physmem_available () / 2))
    8a88:	eddd7a14 	vldr	s15, [sp, #80]	@ 0x50
    8a8c:	ed9f9b4b 	vldr	d9, [pc, #300]	@ 8bc0 <main+0xb80>
    8a90:	eeb88be7 	vcvt.f64.s32	d8, s15
    8a94:	eb000a99 	bl	b500 <physmem_available>
    8a98:	ee200b09 	vmul.f64	d0, d0, d9
    8a9c:	ed9f7b49 	vldr	d7, [pc, #292]	@ 8bc8 <main+0xb88>
    8aa0:	eeb40bc7 	vcmpe.f64	d0, d7
    8aa4:	eef1fa10 	vmrs	APSR_nzcv, fpscr
    8aa8:	da00001c 	ble	8b20 <main+0xae0>
    8aac:	eeb48bc7 	vcmpe.f64	d8, d7
    8ab0:	eef1fa10 	vmrs	APSR_nzcv, fpscr
    8ab4:	8afffe42 	bhi	83c4 <main+0x384>
          readtokens0_init (&tok);
    8ab8:	e28d0098 	add	r0, sp, #152	@ 0x98
    8abc:	eb001368 	bl	d864 <readtokens0_init>
          if (! readtokens0 (stream, &tok) || fclose (stream) != 0)
    8ac0:	e28d1098 	add	r1, sp, #152	@ 0x98
    8ac4:	e1a00005 	mov	r0, r5
    8ac8:	eb001390 	bl	d910 <readtokens0>
    8acc:	e2504000 	subs	r4, r0, #0
    8ad0:	0a000018 	beq	8b38 <main+0xaf8>
    8ad4:	e1a00005 	mov	r0, r5
    8ad8:	eb000606 	bl	a2f8 <rpl_fclose>
    8adc:	e3500000 	cmp	r0, #0
    8ae0:	1a000014 	bne	8b38 <main+0xaf8>
          files = tok.tok;
    8ae4:	e59d509c 	ldr	r5, [sp, #156]	@ 0x9c
          nfiles = tok.n_tok;
    8ae8:	e59d7098 	ldr	r7, [sp, #152]	@ 0x98
          ai = argv_iter_init_argv (files);
    8aec:	e1a00005 	mov	r0, r5
    8af0:	eb0004b5 	bl	9dcc <argv_iter_init_argv>
  if (!ai)
    8af4:	e2508000 	subs	r8, r0, #0
    8af8:	0a00000d 	beq	8b34 <main+0xaf4>
  struct fstatus *fstatus = xnmalloc (nfiles ? nfiles : 1, sizeof *fstatus);
    8afc:	e3570001 	cmp	r7, #1
    8b00:	e3a01060 	mov	r1, #96	@ 0x60
    8b04:	21a00007 	movcs	r0, r7
    8b08:	33a00001 	movcc	r0, #1
    8b0c:	eb001557 	bl	e070 <xnmalloc>
  if (nfiles == 0
    8b10:	e3570000 	cmp	r7, #0
  struct fstatus *fstatus = xnmalloc (nfiles ? nfiles : 1, sizeof *fstatus);
    8b14:	e1a09000 	mov	r9, r0
  if (nfiles == 0
    8b18:	1afffe8d 	bne	8554 <main+0x514>
    8b1c:	eafffe32 	b	83ec <main+0x3ac>
          && st.st_size <= MIN (10 * 1024 * 1024, physmem_available () / 2))
    8b20:	eb000a76 	bl	b500 <physmem_available>
    8b24:	ee207b09 	vmul.f64	d7, d0, d9
    8b28:	eaffffdf 	b	8aac <main+0xa6c>
      case_GETOPT_HELP_CHAR;
    8b2c:	e3a00000 	mov	r0, #0
    8b30:	eb0002f9 	bl	971c <usage>
              xalloc_die ();
    8b34:	eb00160e 	bl	e374 <xalloc_die>
            error (EXIT_FAILURE, 0, _("cannot read file names from %s"),
    8b38:	e1a0100b 	mov	r1, fp
    8b3c:	e3a00004 	mov	r0, #4
    8b40:	eb0011c0 	bl	d248 <quotearg_style>
    8b44:	e30829b8 	movw	r2, #35256	@ 0x89b8
    8b48:	e1a03000 	mov	r3, r0
    8b4c:	e3402002 	movt	r2, #2
    8b50:	e3a01000 	mov	r1, #0
    8b54:	e3a00001 	mov	r0, #1
    8b58:	eb000573 	bl	a12c <error>
          error (0, 0, _("extra operand %s"), quoteaf (argv[optind]));
    8b5c:	e7951107 	ldr	r1, [r5, r7, lsl #2]
    8b60:	e3a00004 	mov	r0, #4
    8b64:	eb0011b7 	bl	d248 <quotearg_style>
    8b68:	e3a01000 	mov	r1, #0
    8b6c:	e3082950 	movw	r2, #35152	@ 0x8950
    8b70:	e1a03000 	mov	r3, r0
    8b74:	e3402002 	movt	r2, #2
    8b78:	e1a00001 	mov	r0, r1
    8b7c:	eb00056a 	bl	a12c <error>
          fprintf (stderr, "%s\n",
    8b80:	e59a3000 	ldr	r3, [sl]
    8b84:	e3082964 	movw	r2, #35172	@ 0x8964
    8b88:	e3081e3c 	movw	r1, #36412	@ 0x8e3c
    8b8c:	e3402002 	movt	r2, #2
    8b90:	e3401002 	movt	r1, #2
    8b94:	e593000c 	ldr	r0, [r3, #12]
    8b98:	eb003ee1 	bl	18724 <fprintf>
    8b9c:	eafffd9b 	b	8210 <main+0x1d0>
              affirm (!"unexpected error code from argv_iter");
    8ba0:	e30839e8 	movw	r3, #35304	@ 0x89e8
    8ba4:	e3080a10 	movw	r0, #35344	@ 0x8a10
    8ba8:	e59f2028 	ldr	r2, [pc, #40]	@ 8bd8 <main+0xb98>
    8bac:	e3403002 	movt	r3, #2
    8bb0:	e3a01feb 	mov	r1, #940	@ 0x3ac
    8bb4:	e3400002 	movt	r0, #2
    8bb8:	eb0036d8 	bl	16720 <__assert_func>
    8bbc:	e320f000 	nop	{0}
    8bc0:	00000000 	.word	0x00000000
    8bc4:	3fe00000 	.word	0x3fe00000
    8bc8:	00000000 	.word	0x00000000
    8bcc:	41640000 	.word	0x41640000
    8bd0:	00029be8 	.word	0x00029be8
    8bd4:	0002b398 	.word	0x0002b398
    8bd8:	00029cb0 	.word	0x00029cb0

00008bdc <deregister_tm_clones>:
    8bdc:	e30b0318 	movw	r0, #45848	@ 0xb318
    8be0:	e30b3318 	movw	r3, #45848	@ 0xb318
    8be4:	e3400002 	movt	r0, #2
    8be8:	e3403002 	movt	r3, #2
    8bec:	e1530000 	cmp	r3, r0
    8bf0:	012fff1e 	bxeq	lr
    8bf4:	e3003000 	movw	r3, #0
    8bf8:	e3403000 	movt	r3, #0
    8bfc:	e3530000 	cmp	r3, #0
    8c00:	012fff1e 	bxeq	lr
    8c04:	e12fff13 	bx	r3

00008c08 <register_tm_clones>:
    8c08:	e30b0318 	movw	r0, #45848	@ 0xb318
    8c0c:	e30b3318 	movw	r3, #45848	@ 0xb318
    8c10:	e3400002 	movt	r0, #2
    8c14:	e3403002 	movt	r3, #2
    8c18:	e0433000 	sub	r3, r3, r0
    8c1c:	e1a01fa3 	lsr	r1, r3, #31
    8c20:	e0811143 	add	r1, r1, r3, asr #2
    8c24:	e1b010c1 	asrs	r1, r1, #1
    8c28:	012fff1e 	bxeq	lr
    8c2c:	e3003000 	movw	r3, #0
    8c30:	e3403000 	movt	r3, #0
    8c34:	e3530000 	cmp	r3, #0
    8c38:	012fff1e 	bxeq	lr
    8c3c:	e12fff13 	bx	r3

00008c40 <__do_global_dtors_aux>:
    8c40:	e92d4010 	push	{r4, lr}
    8c44:	e30b4318 	movw	r4, #45848	@ 0xb318
    8c48:	e3404002 	movt	r4, #2
    8c4c:	e5d43000 	ldrb	r3, [r4]
    8c50:	e3530000 	cmp	r3, #0
    8c54:	18bd8010 	popne	{r4, pc}
    8c58:	ebffffdf 	bl	8bdc <deregister_tm_clones>
    8c5c:	e3003000 	movw	r3, #0
    8c60:	e3403000 	movt	r3, #0
    8c64:	e3530000 	cmp	r3, #0
    8c68:	0a000002 	beq	8c78 <__do_global_dtors_aux+0x38>
    8c6c:	e30a025c 	movw	r0, #41564	@ 0xa25c
    8c70:	e3400002 	movt	r0, #2
    8c74:	e320f000 	nop	{0}
    8c78:	e3a03001 	mov	r3, #1
    8c7c:	e5c43000 	strb	r3, [r4]
    8c80:	e8bd8010 	pop	{r4, pc}

00008c84 <frame_dummy>:
    8c84:	e3003000 	movw	r3, #0
    8c88:	e3403000 	movt	r3, #0
    8c8c:	e3530000 	cmp	r3, #0
    8c90:	0a000007 	beq	8cb4 <frame_dummy+0x30>
    8c94:	e30b131c 	movw	r1, #45852	@ 0xb31c
    8c98:	e30a025c 	movw	r0, #41564	@ 0xa25c
    8c9c:	e92d4010 	push	{r4, lr}
    8ca0:	e3401002 	movt	r1, #2
    8ca4:	e3400002 	movt	r0, #2
    8ca8:	e320f000 	nop	{0}
    8cac:	e8bd4010 	pop	{r4, lr}
    8cb0:	eaffffd4 	b	8c08 <register_tm_clones>
    8cb4:	eaffffd3 	b	8c08 <register_tm_clones>

00008cb8 <_start>:
  .text
  .globl  _start
_start:
  // Clear the frame pointer register (R11) so that stack backtraces will be
  // terminated properly.
  mov     r11, #0
    8cb8:	e3a0b000 	mov	fp, #0

  // Save program name into the global variable
  ldr     r3, =__progname
    8cbc:	e59f3034 	ldr	r3, [pc, #52]	@ 8cf8 <_start+0x40>
  cmp     r1, #0
    8cc0:	e3510000 	cmp	r1, #0
  beq     1f
    8cc4:	0a000002 	beq	8cd4 <_start+0x1c>
  ldr     r4, [r1]
    8cc8:	e5914000 	ldr	r4, [r1]
  cmp     r4, #0
    8ccc:	e3540000 	cmp	r4, #0
  strne   r4, [r3]
    8cd0:	15834000 	strne	r4, [r3]
1:

  // Save environment into the global variable
  ldr     r3, =environ
    8cd4:	e59f3020 	ldr	r3, [pc, #32]	@ 8cfc <_start+0x44>
  cmp     r2, #0
    8cd8:	e3520000 	cmp	r2, #0
  strne   r2, [r3]
    8cdc:	15832000 	strne	r2, [r3]

  stmdb   sp!,{r0-r2}
    8ce0:	e92d0007 	push	{r0, r1, r2}

  bl      __libc_init_array
    8ce4:	eb004ace 	bl	1b824 <__libc_init_array>

  ldmia   sp!,{r0-r2}
    8ce8:	e8bd0007 	pop	{r0, r1, r2}

  // Call the user main routine.
  bl      main
    8cec:	ebfffcd3 	bl	8040 <main>

  // Terminate the process with the exit code from main().
  bl      exit
    8cf0:	eb0036a9 	bl	1679c <exit>

  // Should not return.
  b       .         
    8cf4:	eafffffe 	b	8cf4 <_start+0x3c>
  ldr     r3, =__progname
    8cf8:	0002b85c 	.word	0x0002b85c
  ldr     r3, =environ
    8cfc:	0002b068 	.word	0x0002b068

00008d00 <write_counts>:
{
    8d00:	e92d41f0 	push	{r4, r5, r6, r7, r8, lr}
  if (print_lines)
    8d04:	e30b4338 	movw	r4, #45880	@ 0xb338
    8d08:	e3404002 	movt	r4, #2
{
    8d0c:	e1a07003 	mov	r7, r3
    8d10:	e24dd018 	sub	sp, sp, #24
    8d14:	e1a08002 	mov	r8, r2
  if (print_lines)
    8d18:	e5d43000 	ldrb	r3, [r4]
{
    8d1c:	e59d6048 	ldr	r6, [sp, #72]	@ 0x48
  if (print_lines)
    8d20:	e3530000 	cmp	r3, #0
  char const *format_int = format_sp_int + 1;
    8d24:	059f5194 	ldreq	r5, [pc, #404]	@ 8ec0 <write_counts+0x1c0>
  if (print_lines)
    8d28:	1a00005a 	bne	8e98 <write_counts+0x198>
  if (print_words)
    8d2c:	e5d43008 	ldrb	r3, [r4, #8]
    8d30:	e3530000 	cmp	r3, #0
    8d34:	1a00004b 	bne	8e68 <write_counts+0x168>
  if (print_chars)
    8d38:	e5d43009 	ldrb	r3, [r4, #9]
    8d3c:	e3530000 	cmp	r3, #0
    8d40:	1a00003d 	bne	8e3c <write_counts+0x13c>
  if (print_bytes)
    8d44:	e5d4300a 	ldrb	r3, [r4, #10]
    8d48:	e3530000 	cmp	r3, #0
    8d4c:	1a00002f 	bne	8e10 <write_counts+0x110>
  if (print_linelength)
    8d50:	e5d4300b 	ldrb	r3, [r4, #11]
    8d54:	e3530000 	cmp	r3, #0
    8d58:	1a000023 	bne	8dec <write_counts+0xec>
  if (file)
    8d5c:	e3560000 	cmp	r6, #0
    8d60:	0a00000d 	beq	8d9c <write_counts+0x9c>
    printf (" %s", strchr (file, '\n') ? quotef (file) : file);
    8d64:	e3a0100a 	mov	r1, #10
    8d68:	e1a00006 	mov	r0, r6
    8d6c:	eb00468d 	bl	1a7a8 <strchr>
    8d70:	e3500000 	cmp	r0, #0
    8d74:	0a000004 	beq	8d8c <write_counts+0x8c>
    8d78:	e1a02006 	mov	r2, r6
    8d7c:	e3a01003 	mov	r1, #3
    8d80:	e3a00000 	mov	r0, #0
    8d84:	eb0011ce 	bl	d4c4 <quotearg_n_style_colon>
    8d88:	e1a06000 	mov	r6, r0
    8d8c:	e3080bec 	movw	r0, #35820	@ 0x8bec
    8d90:	e1a01006 	mov	r1, r6
    8d94:	e3400002 	movt	r0, #2
    8d98:	eb004073 	bl	18f6c <printf>
static __inline int
_putchar_unlocked(int _c)
{
	struct _reent *_ptr;

	_ptr = _REENT;
    8d9c:	e30b31e8 	movw	r3, #45544	@ 0xb1e8
    8da0:	e3403002 	movt	r3, #2
    8da4:	e5930000 	ldr	r0, [r3]
	return (__sputc_r(_ptr, _c, _stdout_r(_ptr)));
    8da8:	e5902008 	ldr	r2, [r0, #8]
	if (--_p->_w >= 0 || (_p->_w >= _p->_lbfsize && (char)_c != '\n'))
    8dac:	e5923008 	ldr	r3, [r2, #8]
    8db0:	e2433001 	sub	r3, r3, #1
    8db4:	e3530000 	cmp	r3, #0
    8db8:	e5823008 	str	r3, [r2, #8]
    8dbc:	aa000003 	bge	8dd0 <write_counts+0xd0>
		return (__swbuf_r(_ptr, _c, _p));
    8dc0:	e3a0100a 	mov	r1, #10
    8dc4:	eb00427e 	bl	197c4 <__swbuf_r>
}
    8dc8:	e28dd018 	add	sp, sp, #24
    8dcc:	e8bd81f0 	pop	{r4, r5, r6, r7, r8, pc}
		return (*_p->_p++ = _c);
    8dd0:	e5923000 	ldr	r3, [r2]
    8dd4:	e3a0100a 	mov	r1, #10
    8dd8:	e2830001 	add	r0, r3, #1
    8ddc:	e5820000 	str	r0, [r2]
    8de0:	e5c31000 	strb	r1, [r3]
    8de4:	e28dd018 	add	sp, sp, #24
    8de8:	e8bd81f0 	pop	{r4, r5, r6, r7, r8, pc}
      printf (format_int, number_width, umaxtostr (linelength, buf));
    8dec:	e5944004 	ldr	r4, [r4, #4]
    8df0:	e1a0200d 	mov	r2, sp
    8df4:	e1cd04d0 	ldrd	r0, [sp, #64]	@ 0x40
    8df8:	eb000974 	bl	b3d0 <umaxtostr>
    8dfc:	e1a01004 	mov	r1, r4
    8e00:	e1a02000 	mov	r2, r0
    8e04:	e1a00005 	mov	r0, r5
    8e08:	eb004057 	bl	18f6c <printf>
    8e0c:	eaffffd2 	b	8d5c <write_counts+0x5c>
      printf (format_int, number_width, umaxtostr (bytes, buf));
    8e10:	e5947004 	ldr	r7, [r4, #4]
    8e14:	e1a0200d 	mov	r2, sp
    8e18:	e1cd03d8 	ldrd	r0, [sp, #56]	@ 0x38
    8e1c:	eb00096b 	bl	b3d0 <umaxtostr>
    8e20:	e1a01007 	mov	r1, r7
    8e24:	e1a02000 	mov	r2, r0
    8e28:	e1a00005 	mov	r0, r5
      format_int = format_sp_int;
    8e2c:	e3095ba8 	movw	r5, #39848	@ 0x9ba8
    8e30:	e3405002 	movt	r5, #2
      printf (format_int, number_width, umaxtostr (bytes, buf));
    8e34:	eb00404c 	bl	18f6c <printf>
      format_int = format_sp_int;
    8e38:	eaffffc4 	b	8d50 <write_counts+0x50>
      printf (format_int, number_width, umaxtostr (chars, buf));
    8e3c:	e5947004 	ldr	r7, [r4, #4]
    8e40:	e1a0200d 	mov	r2, sp
    8e44:	e1cd03d0 	ldrd	r0, [sp, #48]	@ 0x30
    8e48:	eb000960 	bl	b3d0 <umaxtostr>
    8e4c:	e1a01007 	mov	r1, r7
    8e50:	e1a02000 	mov	r2, r0
    8e54:	e1a00005 	mov	r0, r5
      format_int = format_sp_int;
    8e58:	e3095ba8 	movw	r5, #39848	@ 0x9ba8
    8e5c:	e3405002 	movt	r5, #2
      printf (format_int, number_width, umaxtostr (chars, buf));
    8e60:	eb004041 	bl	18f6c <printf>
      format_int = format_sp_int;
    8e64:	eaffffb6 	b	8d44 <write_counts+0x44>
      printf (format_int, number_width, umaxtostr (words, buf));
    8e68:	e1a01007 	mov	r1, r7
    8e6c:	e5947004 	ldr	r7, [r4, #4]
    8e70:	e1a0200d 	mov	r2, sp
    8e74:	e1a00008 	mov	r0, r8
    8e78:	eb000954 	bl	b3d0 <umaxtostr>
    8e7c:	e1a01007 	mov	r1, r7
    8e80:	e1a02000 	mov	r2, r0
    8e84:	e1a00005 	mov	r0, r5
      format_int = format_sp_int;
    8e88:	e3095ba8 	movw	r5, #39848	@ 0x9ba8
    8e8c:	e3405002 	movt	r5, #2
      printf (format_int, number_width, umaxtostr (words, buf));
    8e90:	eb004035 	bl	18f6c <printf>
      format_int = format_sp_int;
    8e94:	eaffffa7 	b	8d38 <write_counts+0x38>
      printf (format_int, number_width, umaxtostr (lines, buf));
    8e98:	e5945004 	ldr	r5, [r4, #4]
    8e9c:	e1a0200d 	mov	r2, sp
    8ea0:	eb00094a 	bl	b3d0 <umaxtostr>
    8ea4:	e1a02000 	mov	r2, r0
    8ea8:	e59f0010 	ldr	r0, [pc, #16]	@ 8ec0 <write_counts+0x1c0>
    8eac:	e1a01005 	mov	r1, r5
      format_int = format_sp_int;
    8eb0:	e3095ba8 	movw	r5, #39848	@ 0x9ba8
    8eb4:	e3405002 	movt	r5, #2
      printf (format_int, number_width, umaxtostr (lines, buf));
    8eb8:	eb00402b 	bl	18f6c <printf>
      format_int = format_sp_int;
    8ebc:	eaffff9a 	b	8d2c <write_counts+0x2c>
    8ec0:	00029ba9 	.word	0x00029ba9

00008ec4 <wc>:
  char const *file = file_x ? file_x : _("standard input");
    8ec4:	e251c000 	subs	ip, r1, #0
    8ec8:	e308134c 	movw	r1, #33612	@ 0x834c
{
    8ecc:	e92d4ff0 	push	{r4, r5, r6, r7, r8, r9, sl, fp, lr}
  char const *file = file_x ? file_x : _("standard input");
    8ed0:	e3401002 	movt	r1, #2
{
    8ed4:	e24dd901 	sub	sp, sp, #16384	@ 0x4000
  count_complicated = print_words || print_linelength;
    8ed8:	e30bb338 	movw	fp, #45880	@ 0xb338
{
    8edc:	e24dd054 	sub	sp, sp, #84	@ 0x54
    8ee0:	e1a05003 	mov	r5, r3
  count_complicated = print_words || print_linelength;
    8ee4:	e340b002 	movt	fp, #2
  char const *file = file_x ? file_x : _("standard input");
    8ee8:	11a0300c 	movne	r3, ip
    8eec:	01a03001 	moveq	r3, r1
{
    8ef0:	e1a04002 	mov	r4, r2
  char const *file = file_x ? file_x : _("standard input");
    8ef4:	e58d3040 	str	r3, [sp, #64]	@ 0x40
      count_bytes = print_bytes || print_chars;
    8ef8:	e5db300a 	ldrb	r3, [fp, #10]
  count_complicated = print_words || print_linelength;
    8efc:	e5db2008 	ldrb	r2, [fp, #8]
  char const *file = file_x ? file_x : _("standard input");
    8f00:	e58dc044 	str	ip, [sp, #68]	@ 0x44
      count_bytes = print_bytes || print_chars;
    8f04:	e3530000 	cmp	r3, #0
{
    8f08:	e58d0034 	str	r0, [sp, #52]	@ 0x34
      count_bytes = print_bytes || print_chars;
    8f0c:	1a000002 	bne	8f1c <wc+0x58>
    8f10:	e5db3009 	ldrb	r3, [fp, #9]
    8f14:	e3530000 	cmp	r3, #0
    8f18:	0a0000ae 	beq	91d8 <wc+0x314>
  count_complicated = print_words || print_linelength;
    8f1c:	e3520000 	cmp	r2, #0
    8f20:	0a00007a 	beq	9110 <wc+0x24c>
    fdadvise (fd, 0, 0, FADVISE_SEQUENTIAL);
    8f24:	e3a02000 	mov	r2, #0
    8f28:	e59d0034 	ldr	r0, [sp, #52]	@ 0x34
    8f2c:	e3a03001 	mov	r3, #1
    8f30:	e1a01002 	mov	r1, r2
    8f34:	eb0004eb 	bl	a2e8 <fdadvise>
                      in_word = true;
    8f38:	e3a02000 	mov	r2, #0
    8f3c:	e28d104c 	add	r1, sp, #76	@ 0x4c
    8f40:	e1a07002 	mov	r7, r2
    8f44:	e1a05002 	mov	r5, r2
    8f48:	e1a08002 	mov	r8, r2
    8f4c:	e1a04002 	mov	r4, r2
    8f50:	e1a09002 	mov	r9, r2
    8f54:	e1a0a002 	mov	sl, r2
    8f58:	e1a06002 	mov	r6, r2
    8f5c:	e58d2028 	str	r2, [sp, #40]	@ 0x28
    8f60:	e58d2024 	str	r2, [sp, #36]	@ 0x24
    8f64:	e58d2020 	str	r2, [sp, #32]
    8f68:	e58d2030 	str	r2, [sp, #48]	@ 0x30
    8f6c:	e58db038 	str	fp, [sp, #56]	@ 0x38
      while ((bytes_read = safe_read (fd, buf, BUFFER_SIZE)) > 0)
    8f70:	e3a02901 	mov	r2, #16384	@ 0x4000
    8f74:	e59d0034 	ldr	r0, [sp, #52]	@ 0x34
    8f78:	e58d102c 	str	r1, [sp, #44]	@ 0x2c
    8f7c:	eb0012c2 	bl	da8c <safe_read>
    8f80:	e2502000 	subs	r2, r0, #0
    8f84:	e59d102c 	ldr	r1, [sp, #44]	@ 0x2c
    8f88:	0a0000cd 	beq	92c4 <wc+0x400>
          if (bytes_read == SAFE_READ_ERROR)
    8f8c:	e3720001 	cmn	r2, #1
    8f90:	0a00012b 	beq	9444 <wc+0x580>
          bytes += bytes_read;
    8f94:	e59d3028 	ldr	r3, [sp, #40]	@ 0x28
          char const *p = buf;
    8f98:	e1a0b001 	mov	fp, r1
          bytes += bytes_read;
    8f9c:	e0920003 	adds	r0, r2, r3
    8fa0:	e59d3024 	ldr	r3, [sp, #36]	@ 0x24
    8fa4:	e0812002 	add	r2, r1, r2
    8fa8:	e58d0028 	str	r0, [sp, #40]	@ 0x28
    8fac:	e2a33000 	adc	r3, r3, #0
    8fb0:	e58d3024 	str	r3, [sp, #36]	@ 0x24
          char const *p = buf;
    8fb4:	e59d3030 	ldr	r3, [sp, #48]	@ 0x30
              switch (*p++)
    8fb8:	e4db0001 	ldrb	r0, [fp], #1
    8fbc:	e240c009 	sub	ip, r0, #9
    8fc0:	e35c0017 	cmp	ip, #23
    8fc4:	979ff10c 	ldrls	pc, [pc, ip, lsl #2]
    8fc8:	ea000017 	b	902c <wc+0x168>
    8fcc:	00009100 	.word	0x00009100
    8fd0:	000090ac 	.word	0x000090ac
    8fd4:	000090d4 	.word	0x000090d4
    8fd8:	000090bc 	.word	0x000090bc
    8fdc:	000090bc 	.word	0x000090bc
    8fe0:	0000902c 	.word	0x0000902c
    8fe4:	0000902c 	.word	0x0000902c
    8fe8:	0000902c 	.word	0x0000902c
    8fec:	0000902c 	.word	0x0000902c
    8ff0:	0000902c 	.word	0x0000902c
    8ff4:	0000902c 	.word	0x0000902c
    8ff8:	0000902c 	.word	0x0000902c
    8ffc:	0000902c 	.word	0x0000902c
    9000:	0000902c 	.word	0x0000902c
    9004:	0000902c 	.word	0x0000902c
    9008:	0000902c 	.word	0x0000902c
    900c:	0000902c 	.word	0x0000902c
    9010:	0000902c 	.word	0x0000902c
    9014:	0000902c 	.word	0x0000902c
    9018:	0000902c 	.word	0x0000902c
    901c:	0000902c 	.word	0x0000902c
    9020:	0000902c 	.word	0x0000902c
    9024:	0000902c 	.word	0x0000902c
    9028:	000090f4 	.word	0x000090f4
                  if (isprint (to_uchar (p[-1])))
    902c:	e59fc6e4 	ldr	ip, [pc, #1764]	@ 9718 <wc+0x854>
    9030:	e7dcc000 	ldrb	ip, [ip, r0]
    9034:	e31c0097 	tst	ip, #151	@ 0x97
    9038:	0a000029 	beq	90e4 <wc+0x220>
                      linepos++;
    903c:	e2955001 	adds	r5, r5, #1
    9040:	e2a88000 	adc	r8, r8, #0
                      if (isspace (to_uchar (p[-1]))
    9044:	e31c0008 	tst	ip, #8
    9048:	1a000021 	bne	90d4 <wc+0x210>
  return ! posixly_correct
    904c:	e59dc038 	ldr	ip, [sp, #56]	@ 0x38
    9050:	e5dcc010 	ldrb	ip, [ip, #16]
         && (wc == 0x00A0 || wc == 0x2007
    9054:	e35c0000 	cmp	ip, #0
                      in_word = true;
    9058:	11a0400c 	movne	r4, ip
         && (wc == 0x00A0 || wc == 0x2007
    905c:	1a000020 	bne	90e4 <wc+0x220>
    9060:	e58d103c 	str	r1, [sp, #60]	@ 0x3c
    9064:	e1cd22fc 	strd	r2, [sp, #44]	@ 0x2c
  return iswnbspace (btowc (c));
    9068:	eb0003a8 	bl	9f10 <rpl_btowc>
         && (wc == 0x00A0 || wc == 0x2007
    906c:	e302c007 	movw	ip, #8199	@ 0x2007
    9070:	e1cd22dc 	ldrd	r2, [sp, #44]	@ 0x2c
    9074:	e150000c 	cmp	r0, ip
    9078:	135000a0 	cmpne	r0, #160	@ 0xa0
    907c:	e59d103c 	ldr	r1, [sp, #60]	@ 0x3c
    9080:	0a000013 	beq	90d4 <wc+0x210>
             || wc == 0x202F || wc == 0x2060);
    9084:	e302e02f 	movw	lr, #8239	@ 0x202f
    9088:	e302c060 	movw	ip, #8288	@ 0x2060
    908c:	e150000c 	cmp	r0, ip
    9090:	1150000e 	cmpne	r0, lr
                      in_word = true;
    9094:	13a04001 	movne	r4, #1
             || wc == 0x202F || wc == 0x2060);
    9098:	0a00000d 	beq	90d4 <wc+0x210>
          while (--bytes_read);
    909c:	e152000b 	cmp	r2, fp
    90a0:	1affffc4 	bne	8fb8 <wc+0xf4>
    90a4:	e58d3030 	str	r3, [sp, #48]	@ 0x30
    90a8:	eaffffb0 	b	8f70 <wc+0xac>
                  lines++;
    90ac:	e59d0020 	ldr	r0, [sp, #32]
    90b0:	e2999001 	adds	r9, r9, #1
    90b4:	e2a00000 	adc	r0, r0, #0
    90b8:	e58d0020 	str	r0, [sp, #32]
                  if (linepos > linelength)
    90bc:	e15a0005 	cmp	sl, r5
    90c0:	e0d30008 	sbcs	r0, r3, r8
    90c4:	31a0a005 	movcc	sl, r5
                  linepos = 0;
    90c8:	e3a05000 	mov	r5, #0
                  if (linepos > linelength)
    90cc:	31a03008 	movcc	r3, r8
                  linepos = 0;
    90d0:	e1a08005 	mov	r8, r5
                  words += in_word;
    90d4:	e0944006 	adds	r4, r4, r6
    90d8:	e1a06004 	mov	r6, r4
    90dc:	e2a77000 	adc	r7, r7, #0
                  in_word = false;
    90e0:	e3a04000 	mov	r4, #0
          while (--bytes_read);
    90e4:	e152000b 	cmp	r2, fp
    90e8:	1affffb2 	bne	8fb8 <wc+0xf4>
    90ec:	e58d3030 	str	r3, [sp, #48]	@ 0x30
    90f0:	eaffff9e 	b	8f70 <wc+0xac>
                  linepos++;
    90f4:	e2955001 	adds	r5, r5, #1
    90f8:	e2a88000 	adc	r8, r8, #0
    90fc:	eafffff4 	b	90d4 <wc+0x210>
                  linepos += 8 - (linepos % 8);
    9100:	e3c55007 	bic	r5, r5, #7
    9104:	e2955008 	adds	r5, r5, #8
    9108:	e2a88000 	adc	r8, r8, #0
                  goto word_separator;
    910c:	eafffff0 	b	90d4 <wc+0x210>
  count_complicated = print_words || print_linelength;
    9110:	e5db300b 	ldrb	r3, [fp, #11]
    9114:	e3530000 	cmp	r3, #0
    9118:	e58d3030 	str	r3, [sp, #48]	@ 0x30
    911c:	1a000157 	bne	9680 <wc+0x7bc>
  if (!count_bytes || count_chars || print_lines || count_complicated)
    9120:	e5db3000 	ldrb	r3, [fp]
    9124:	e3530000 	cmp	r3, #0
    9128:	1a000172 	bne	96f8 <wc+0x834>
      if (0 < fstatus->failed)
    912c:	e5947000 	ldr	r7, [r4]
    9130:	e3570000 	cmp	r7, #0
    9134:	da000004 	ble	914c <wc+0x288>
        fstatus->failed = fstat (fd, &fstatus->st);
    9138:	e59d0034 	ldr	r0, [sp, #52]	@ 0x34
    913c:	e2841008 	add	r1, r4, #8
    9140:	eb005930 	bl	1f608 <fstat>
    9144:	e1a07000 	mov	r7, r0
    9148:	e5840000 	str	r0, [r4]
      if (! fstatus->failed && usable_st_size (&fstatus->st)
    914c:	e3570000 	cmp	r7, #0
    9150:	1a0000e3 	bne	94e4 <wc+0x620>

/* Return a boolean indicating whether SB->st_size is defined.  */
static inline bool
usable_st_size (struct stat const *sb)
{
  return (S_ISREG (sb->st_mode) || S_ISLNK (sb->st_mode)
    9154:	e594300c 	ldr	r3, [r4, #12]
    9158:	e2033a0d 	and	r3, r3, #53248	@ 0xd000
    915c:	e3530902 	cmp	r3, #32768	@ 0x8000
    9160:	1a0000df 	bne	94e4 <wc+0x620>
          && 0 <= fstatus->st.st_size)
    9164:	e5946018 	ldr	r6, [r4, #24]
    9168:	e3560000 	cmp	r6, #0
    916c:	ba0000dc 	blt	94e4 <wc+0x620>
          if (current_pos < 0)
    9170:	e3750001 	cmn	r5, #1
    9174:	0a0000c6 	beq	9494 <wc+0x5d0>
          if (end_pos % page_size)
    9178:	e59b100c 	ldr	r1, [fp, #12]
    917c:	e1a00006 	mov	r0, r6
    9180:	eb003471 	bl	1634c <__aeabi_uidivmod>
    9184:	e3510000 	cmp	r1, #0
    9188:	0a000141 	beq	9694 <wc+0x7d0>
              bytes = end_pos < current_pos ? 0 : end_pos - current_pos;
    918c:	e1a03fc6 	asr	r3, r6, #31
    9190:	e58d6028 	str	r6, [sp, #40]	@ 0x28
    9194:	e58d3024 	str	r3, [sp, #36]	@ 0x24
              if (bytes && 0 <= lseek (fd, bytes, SEEK_CUR))
    9198:	e59d0034 	ldr	r0, [sp, #52]	@ 0x34
    919c:	e1a01006 	mov	r1, r6
    91a0:	e3a02001 	mov	r2, #1
    91a4:	eb00599d 	bl	1f820 <lseek>
    91a8:	e3500000 	cmp	r0, #0
    91ac:	ba0000cc 	blt	94e4 <wc+0x620>
  lines = words = chars = bytes = linelength = 0;
    91b0:	e3a03000 	mov	r3, #0
  bool ok = true;
    91b4:	e3a02001 	mov	r2, #1
  lines = words = chars = bytes = linelength = 0;
    91b8:	e1a07003 	mov	r7, r3
    91bc:	e1a09003 	mov	r9, r3
    91c0:	e1a0a003 	mov	sl, r3
    91c4:	e1a04003 	mov	r4, r3
    91c8:	e58d302c 	str	r3, [sp, #44]	@ 0x2c
  bool ok = true;
    91cc:	e58d2030 	str	r2, [sp, #48]	@ 0x30
  lines = words = chars = bytes = linelength = 0;
    91d0:	e58d3020 	str	r3, [sp, #32]
    91d4:	ea000046 	b	92f4 <wc+0x430>
  count_complicated = print_words || print_linelength;
    91d8:	e3520000 	cmp	r2, #0
    91dc:	1affff50 	bne	8f24 <wc+0x60>
    91e0:	e5db200b 	ldrb	r2, [fp, #11]
    91e4:	e3520000 	cmp	r2, #0
    91e8:	1affff4d 	bne	8f24 <wc+0x60>
    fdadvise (fd, 0, 0, FADVISE_SEQUENTIAL);
    91ec:	e3a03001 	mov	r3, #1
    91f0:	e1a01002 	mov	r1, r2
    91f4:	eb00043b 	bl	a2e8 <fdadvise>
  bool long_lines = false;
    91f8:	e3a04000 	mov	r4, #0
    91fc:	e28d104c 	add	r1, sp, #76	@ 0x4c
      if (lines - plines <= bytes_read / 15)
    9200:	e3088889 	movw	r8, #34953	@ 0x8889
    9204:	e58db030 	str	fp, [sp, #48]	@ 0x30
  lines = bytes = 0;
    9208:	e1a05004 	mov	r5, r4
    920c:	e1a06004 	mov	r6, r4
    9210:	e1a07004 	mov	r7, r4
          *end = '\n';
    9214:	e3a0900a 	mov	r9, #10
    9218:	e1a0b001 	mov	fp, r1
      if (lines - plines <= bytes_read / 15)
    921c:	e3488888 	movt	r8, #34952	@ 0x8888
  lines = bytes = 0;
    9220:	e58d4024 	str	r4, [sp, #36]	@ 0x24
    9224:	e58d8020 	str	r8, [sp, #32]
  while ((bytes_read = safe_read (fd, buf, BUFFER_SIZE)) > 0)
    9228:	e59d0034 	ldr	r0, [sp, #52]	@ 0x34
    922c:	e3a02901 	mov	r2, #16384	@ 0x4000
    9230:	e1a0100b 	mov	r1, fp
    9234:	eb001214 	bl	da8c <safe_read>
    9238:	e250c000 	subs	ip, r0, #0
    923c:	0a0000f2 	beq	960c <wc+0x748>
      if (bytes_read == SAFE_READ_ERROR)
    9240:	e37c0001 	cmn	ip, #1
    9244:	0a0000d8 	beq	95ac <wc+0x6e8>
      bytes += bytes_read;
    9248:	e59d3024 	ldr	r3, [sp, #36]	@ 0x24
    924c:	e09c5005 	adds	r5, ip, r5
      char *end = buf + bytes_read;
    9250:	e08ba00c 	add	sl, fp, ip
      bytes += bytes_read;
    9254:	e2a33000 	adc	r3, r3, #0
      if (! long_lines)
    9258:	e3540000 	cmp	r4, #0
      bytes += bytes_read;
    925c:	e58d3024 	str	r3, [sp, #36]	@ 0x24
      if (! long_lines)
    9260:	1a0000c2 	bne	9570 <wc+0x6ac>
    9264:	e1a04006 	mov	r4, r6
    9268:	e1a08007 	mov	r8, r7
      char *p = buf;
    926c:	e1a0000b 	mov	r0, fp
            lines += *p++ == '\n';
    9270:	e4d03001 	ldrb	r3, [r0], #1
    9274:	e243300a 	sub	r3, r3, #10
    9278:	e16f3f13 	clz	r3, r3
    927c:	e1a032a3 	lsr	r3, r3, #5
    9280:	e0934004 	adds	r4, r3, r4
    9284:	e2a88000 	adc	r8, r8, #0
          while (p != end)
    9288:	e15a0000 	cmp	sl, r0
    928c:	1afffff7 	bne	9270 <wc+0x3ac>
      if (lines - plines <= bytes_read / 15)
    9290:	e59d3020 	ldr	r3, [sp, #32]
    9294:	e054e006 	subs	lr, r4, r6
    9298:	e3a02000 	mov	r2, #0
    929c:	e1a06004 	mov	r6, r4
    92a0:	e08c3c93 	umull	r3, ip, r3, ip
    92a4:	e0c83007 	sbc	r3, r8, r7
    92a8:	e1a07008 	mov	r7, r8
    92ac:	e1a0c1ac 	lsr	ip, ip, #3
    92b0:	e15c000e 	cmp	ip, lr
    92b4:	e0d22003 	sbcs	r2, r2, r3
    92b8:	23a04001 	movcs	r4, #1
    92bc:	33a04000 	movcc	r4, #0
    92c0:	eaffffd8 	b	9228 <wc+0x364>
  bool ok = true;
    92c4:	e59db038 	ldr	fp, [sp, #56]	@ 0x38
    92c8:	e3a03001 	mov	r3, #1
    92cc:	e58d902c 	str	r9, [sp, #44]	@ 0x2c
    92d0:	e1a0900a 	mov	r9, sl
    92d4:	e59da030 	ldr	sl, [sp, #48]	@ 0x30
    92d8:	e58d3030 	str	r3, [sp, #48]	@ 0x30
      if (linepos > linelength)
    92dc:	e1590005 	cmp	r9, r5
    92e0:	e0da3008 	sbcs	r3, sl, r8
    92e4:	31a09005 	movcc	r9, r5
    92e8:	31a0a008 	movcc	sl, r8
      words += in_word;
    92ec:	e0944006 	adds	r4, r4, r6
    92f0:	e2a77000 	adc	r7, r7, #0
  if (count_chars < print_chars)
    92f4:	e5db5009 	ldrb	r5, [fp, #9]
  if (total_mode != total_only)
    92f8:	e5db3011 	ldrb	r3, [fp, #17]
  if (count_chars < print_chars)
    92fc:	e3550000 	cmp	r5, #0
    chars = bytes;
    9300:	159d5028 	ldrne	r5, [sp, #40]	@ 0x28
  lines = words = chars = bytes = linelength = 0;
    9304:	01a06005 	moveq	r6, r5
    chars = bytes;
    9308:	159d6024 	ldrne	r6, [sp, #36]	@ 0x24
  if (total_mode != total_only)
    930c:	e3530002 	cmp	r3, #2
    9310:	0a00000d 	beq	934c <wc+0x488>
    write_counts (lines, words, chars, bytes, linelength, file_x);
    9314:	e59d3044 	ldr	r3, [sp, #68]	@ 0x44
    9318:	e1a02004 	mov	r2, r4
    931c:	e59d002c 	ldr	r0, [sp, #44]	@ 0x2c
    9320:	e59d1020 	ldr	r1, [sp, #32]
    9324:	e58d3018 	str	r3, [sp, #24]
    9328:	e59d3028 	ldr	r3, [sp, #40]	@ 0x28
    932c:	e58d9010 	str	r9, [sp, #16]
    9330:	e58da014 	str	sl, [sp, #20]
    9334:	e58d3008 	str	r3, [sp, #8]
    9338:	e59d3024 	ldr	r3, [sp, #36]	@ 0x24
    933c:	e88d0060 	stm	sp, {r5, r6}
    9340:	e58d300c 	str	r3, [sp, #12]
    9344:	e1a03007 	mov	r3, r7
    9348:	ebfffe6c 	bl	8d00 <write_counts>
  if (ckd_add (&total_lines, total_lines, lines))
    934c:	e59b3018 	ldr	r3, [fp, #24]
    9350:	e59d202c 	ldr	r2, [sp, #44]	@ 0x2c
    9354:	e59d1020 	ldr	r1, [sp, #32]
}
    9358:	e59d0030 	ldr	r0, [sp, #48]	@ 0x30
  if (ckd_add (&total_lines, total_lines, lines))
    935c:	e0933002 	adds	r3, r3, r2
    9360:	e59b201c 	ldr	r2, [fp, #28]
    9364:	e58b3018 	str	r3, [fp, #24]
    9368:	e0b22001 	adcs	r2, r2, r1
    936c:	e3a01000 	mov	r1, #0
    9370:	23a01001 	movcs	r1, #1
    9374:	e58b201c 	str	r2, [fp, #28]
    9378:	e3510000 	cmp	r1, #0
  if (ckd_add (&total_words, total_words, words))
    937c:	e3a01000 	mov	r1, #0
    total_lines_overflow = true;
    9380:	13a02001 	movne	r2, #1
    9384:	13a03000 	movne	r3, #0
    9388:	11cb22f0 	strdne	r2, [fp, #32]
  if (ckd_add (&total_words, total_words, words))
    938c:	e59b3028 	ldr	r3, [fp, #40]	@ 0x28
    9390:	e59b202c 	ldr	r2, [fp, #44]	@ 0x2c
    9394:	e0933004 	adds	r3, r3, r4
    9398:	e0b22007 	adcs	r2, r2, r7
    939c:	e58b3028 	str	r3, [fp, #40]	@ 0x28
    93a0:	23a01001 	movcs	r1, #1
    93a4:	e58b202c 	str	r2, [fp, #44]	@ 0x2c
    93a8:	e3510000 	cmp	r1, #0
  if (ckd_add (&total_chars, total_chars, chars))
    93ac:	e3a01000 	mov	r1, #0
    total_words_overflow = true;
    93b0:	13a02001 	movne	r2, #1
    93b4:	13a03000 	movne	r3, #0
    93b8:	11cb23f0 	strdne	r2, [fp, #48]	@ 0x30
  if (ckd_add (&total_chars, total_chars, chars))
    93bc:	e59b3038 	ldr	r3, [fp, #56]	@ 0x38
    93c0:	e59b203c 	ldr	r2, [fp, #60]	@ 0x3c
    93c4:	e0933005 	adds	r3, r3, r5
    93c8:	e0b22006 	adcs	r2, r2, r6
    93cc:	e58b3038 	str	r3, [fp, #56]	@ 0x38
    93d0:	23a01001 	movcs	r1, #1
    93d4:	e58b203c 	str	r2, [fp, #60]	@ 0x3c
    93d8:	e3510000 	cmp	r1, #0
  if (ckd_add (&total_bytes, total_bytes, bytes))
    93dc:	e59d1024 	ldr	r1, [sp, #36]	@ 0x24
    total_chars_overflow = true;
    93e0:	13a02001 	movne	r2, #1
    93e4:	13a03000 	movne	r3, #0
    93e8:	11cb24f0 	strdne	r2, [fp, #64]	@ 0x40
  if (ckd_add (&total_bytes, total_bytes, bytes))
    93ec:	e59b3048 	ldr	r3, [fp, #72]	@ 0x48
    93f0:	e59d2028 	ldr	r2, [sp, #40]	@ 0x28
    93f4:	e0933002 	adds	r3, r3, r2
    93f8:	e59b204c 	ldr	r2, [fp, #76]	@ 0x4c
    93fc:	e58b3048 	str	r3, [fp, #72]	@ 0x48
    9400:	e0b22001 	adcs	r2, r2, r1
    9404:	e3a01000 	mov	r1, #0
    9408:	23a01001 	movcs	r1, #1
    940c:	e58b204c 	str	r2, [fp, #76]	@ 0x4c
    9410:	e3510000 	cmp	r1, #0
    total_bytes_overflow = true;
    9414:	13a02001 	movne	r2, #1
    9418:	13a03000 	movne	r3, #0
    941c:	11cb25f0 	strdne	r2, [fp, #80]	@ 0x50
  if (linelength > max_line_length)
    9420:	e59b3058 	ldr	r3, [fp, #88]	@ 0x58
    9424:	e1530009 	cmp	r3, r9
    9428:	e59b305c 	ldr	r3, [fp, #92]	@ 0x5c
    942c:	e0d3300a 	sbcs	r3, r3, sl
    max_line_length = linelength;
    9430:	358b9058 	strcc	r9, [fp, #88]	@ 0x58
    9434:	358ba05c 	strcc	sl, [fp, #92]	@ 0x5c
}
    9438:	e28dd901 	add	sp, sp, #16384	@ 0x4000
    943c:	e28dd054 	add	sp, sp, #84	@ 0x54
    9440:	e8bd8ff0 	pop	{r4, r5, r6, r7, r8, r9, sl, fp, pc}
              error (0, errno, "%s", quotef (file));
    9444:	e58d902c 	str	r9, [sp, #44]	@ 0x2c
    9448:	e1a0900a 	mov	r9, sl
    944c:	e59db038 	ldr	fp, [sp, #56]	@ 0x38
    9450:	e59da030 	ldr	sl, [sp, #48]	@ 0x30
    9454:	eb0048ee 	bl	1b814 <__errno>
    9458:	e5903000 	ldr	r3, [r0]
    945c:	e3a01003 	mov	r1, #3
    9460:	e59d2040 	ldr	r2, [sp, #64]	@ 0x40
    9464:	e3a00000 	mov	r0, #0
    9468:	e58d3030 	str	r3, [sp, #48]	@ 0x30
    946c:	eb001014 	bl	d4c4 <quotearg_n_style_colon>
    9470:	e3082bfc 	movw	r2, #35836	@ 0x8bfc
    9474:	e1a03000 	mov	r3, r0
    9478:	e59d1030 	ldr	r1, [sp, #48]	@ 0x30
    947c:	e3402002 	movt	r2, #2
    9480:	e3a00000 	mov	r0, #0
    9484:	eb000328 	bl	a12c <error>
              ok = false;
    9488:	e3a03000 	mov	r3, #0
    948c:	e58d3030 	str	r3, [sp, #48]	@ 0x30
              break;
    9490:	eaffff91 	b	92dc <wc+0x418>
            current_pos = lseek (fd, 0, SEEK_CUR);
    9494:	e1a01007 	mov	r1, r7
    9498:	e3a02001 	mov	r2, #1
    949c:	e59d0034 	ldr	r0, [sp, #52]	@ 0x34
    94a0:	eb0058de 	bl	1f820 <lseek>
          if (end_pos % page_size)
    94a4:	e59b100c 	ldr	r1, [fp, #12]
            current_pos = lseek (fd, 0, SEEK_CUR);
    94a8:	e1a07000 	mov	r7, r0
          if (end_pos % page_size)
    94ac:	e1a00006 	mov	r0, r6
    94b0:	eb0033a5 	bl	1634c <__aeabi_uidivmod>
    94b4:	e3510000 	cmp	r1, #0
              if (0 <= current_pos && current_pos < hi_pos
    94b8:	01e05007 	mvneq	r5, r7
    94bc:	01a05fa5 	lsreq	r5, r5, #31
          if (end_pos % page_size)
    94c0:	0a000074 	beq	9698 <wc+0x7d4>
              bytes = end_pos < current_pos ? 0 : end_pos - current_pos;
    94c4:	e1560007 	cmp	r6, r7
    94c8:	ba000005 	blt	94e4 <wc+0x620>
    94cc:	e0466007 	sub	r6, r6, r7
    94d0:	e1a03fc6 	asr	r3, r6, #31
              if (bytes && 0 <= lseek (fd, bytes, SEEK_CUR))
    94d4:	e3560000 	cmp	r6, #0
              bytes = end_pos < current_pos ? 0 : end_pos - current_pos;
    94d8:	e58d6028 	str	r6, [sp, #40]	@ 0x28
    94dc:	e58d3024 	str	r3, [sp, #36]	@ 0x24
              if (bytes && 0 <= lseek (fd, bytes, SEEK_CUR))
    94e0:	1affff2c 	bne	9198 <wc+0x2d4>
  lines = words = chars = bytes = linelength = 0;
    94e4:	e3a03000 	mov	r3, #0
    94e8:	e58d3028 	str	r3, [sp, #40]	@ 0x28
    94ec:	e58d3024 	str	r3, [sp, #36]	@ 0x24
          fdadvise (fd, 0, 0, FADVISE_SEQUENTIAL);
    94f0:	e59d6034 	ldr	r6, [sp, #52]	@ 0x34
    94f4:	e3a02000 	mov	r2, #0
    94f8:	e1a01002 	mov	r1, r2
    94fc:	e3a03001 	mov	r3, #1
    9500:	e1a00006 	mov	r0, r6
    9504:	eb000377 	bl	a2e8 <fdadvise>
          while ((bytes_read = safe_read (fd, buf, BUFFER_SIZE)) > 0)
    9508:	e28d104c 	add	r1, sp, #76	@ 0x4c
    950c:	e59d4028 	ldr	r4, [sp, #40]	@ 0x28
    9510:	e59d5024 	ldr	r5, [sp, #36]	@ 0x24
    9514:	e1a07001 	mov	r7, r1
    9518:	ea000003 	b	952c <wc+0x668>
              if (bytes_read == SAFE_READ_ERROR)
    951c:	e3700001 	cmn	r0, #1
    9520:	0a000040 	beq	9628 <wc+0x764>
              bytes += bytes_read;
    9524:	e0904004 	adds	r4, r0, r4
    9528:	e2a55000 	adc	r5, r5, #0
          while ((bytes_read = safe_read (fd, buf, BUFFER_SIZE)) > 0)
    952c:	e3a02901 	mov	r2, #16384	@ 0x4000
    9530:	e1a01007 	mov	r1, r7
    9534:	e1a00006 	mov	r0, r6
    9538:	eb001153 	bl	da8c <safe_read>
    953c:	e3500000 	cmp	r0, #0
    9540:	1afffff5 	bne	951c <wc+0x658>
  bool ok = true;
    9544:	e3a02001 	mov	r2, #1
  lines = words = chars = bytes = linelength = 0;
    9548:	e58d4028 	str	r4, [sp, #40]	@ 0x28
    954c:	e1a07000 	mov	r7, r0
    9550:	e1a09000 	mov	r9, r0
    9554:	e1a0a000 	mov	sl, r0
    9558:	e1a04000 	mov	r4, r0
    955c:	e58d5024 	str	r5, [sp, #36]	@ 0x24
    9560:	e58d002c 	str	r0, [sp, #44]	@ 0x2c
  bool ok = true;
    9564:	e58d2030 	str	r2, [sp, #48]	@ 0x30
  lines = words = chars = bytes = linelength = 0;
    9568:	e58d0020 	str	r0, [sp, #32]
    956c:	eaffff60 	b	92f4 <wc+0x430>
          while ((p = rawmemchr (p, '\n')) < end)
    9570:	e1a04006 	mov	r4, r6
    9574:	e1a08007 	mov	r8, r7
      char *p = buf;
    9578:	e1a0000b 	mov	r0, fp
          *end = '\n';
    957c:	e7cb900c 	strb	r9, [fp, ip]
          while ((p = rawmemchr (p, '\n')) < end)
    9580:	e58dc028 	str	ip, [sp, #40]	@ 0x28
    9584:	ea000001 	b	9590 <wc+0x6cc>
              ++lines;
    9588:	e2944001 	adds	r4, r4, #1
    958c:	e2a88000 	adc	r8, r8, #0
          while ((p = rawmemchr (p, '\n')) < end)
    9590:	e3a0100a 	mov	r1, #10
    9594:	eb00457e 	bl	1ab94 <rawmemchr>
    9598:	e15a0000 	cmp	sl, r0
              ++p;
    959c:	e2800001 	add	r0, r0, #1
          while ((p = rawmemchr (p, '\n')) < end)
    95a0:	8afffff8 	bhi	9588 <wc+0x6c4>
    95a4:	e59dc028 	ldr	ip, [sp, #40]	@ 0x28
    95a8:	eaffff38 	b	9290 <wc+0x3cc>
          error (0, errno, "%s", quotef (file));
    95ac:	e59db030 	ldr	fp, [sp, #48]	@ 0x30
    95b0:	eb004897 	bl	1b814 <__errno>
    95b4:	e5904000 	ldr	r4, [r0]
    95b8:	e3a01003 	mov	r1, #3
    95bc:	e59d2040 	ldr	r2, [sp, #64]	@ 0x40
    95c0:	e3a00000 	mov	r0, #0
    95c4:	eb000fbe 	bl	d4c4 <quotearg_n_style_colon>
    95c8:	e3082bfc 	movw	r2, #35836	@ 0x8bfc
    95cc:	e1a03000 	mov	r3, r0
    95d0:	e3402002 	movt	r2, #2
    95d4:	e1a01004 	mov	r1, r4
    95d8:	e3a00000 	mov	r0, #0
    95dc:	eb0002d2 	bl	a12c <error>
  lines = words = chars = bytes = linelength = 0;
    95e0:	e3a03000 	mov	r3, #0
    95e4:	e58d3028 	str	r3, [sp, #40]	@ 0x28
    95e8:	e58d3024 	str	r3, [sp, #36]	@ 0x24
    95ec:	e58d302c 	str	r3, [sp, #44]	@ 0x2c
    95f0:	e58d3020 	str	r3, [sp, #32]
      return false;
    95f4:	e58d3030 	str	r3, [sp, #48]	@ 0x30
  lines = words = chars = bytes = linelength = 0;
    95f8:	e3a09000 	mov	r9, #0
    95fc:	e1a0a009 	mov	sl, r9
    9600:	e1a04009 	mov	r4, r9
    9604:	e1a07009 	mov	r7, r9
    9608:	eaffff39 	b	92f4 <wc+0x430>
  return true;
    960c:	e3a03001 	mov	r3, #1
    9610:	e59db030 	ldr	fp, [sp, #48]	@ 0x30
    9614:	e58d5028 	str	r5, [sp, #40]	@ 0x28
    9618:	e58d602c 	str	r6, [sp, #44]	@ 0x2c
    961c:	e58d7020 	str	r7, [sp, #32]
    9620:	e58d3030 	str	r3, [sp, #48]	@ 0x30
    9624:	eafffff3 	b	95f8 <wc+0x734>
                  error (0, errno, "%s", quotef (file));
    9628:	e58d4028 	str	r4, [sp, #40]	@ 0x28
    962c:	e58d5024 	str	r5, [sp, #36]	@ 0x24
    9630:	eb004877 	bl	1b814 <__errno>
    9634:	e5904000 	ldr	r4, [r0]
    9638:	e3a01003 	mov	r1, #3
    963c:	e59d2040 	ldr	r2, [sp, #64]	@ 0x40
    9640:	e3a00000 	mov	r0, #0
    9644:	eb000f9e 	bl	d4c4 <quotearg_n_style_colon>
    9648:	e3082bfc 	movw	r2, #35836	@ 0x8bfc
    964c:	e1a03000 	mov	r3, r0
    9650:	e1a01004 	mov	r1, r4
    9654:	e3402002 	movt	r2, #2
    9658:	e3a00000 	mov	r0, #0
    965c:	eb0002b2 	bl	a12c <error>
  lines = words = chars = bytes = linelength = 0;
    9660:	e3a03000 	mov	r3, #0
    9664:	e1a07003 	mov	r7, r3
    9668:	e1a09003 	mov	r9, r3
    966c:	e1a0a003 	mov	sl, r3
    9670:	e1a04003 	mov	r4, r3
    9674:	e58d302c 	str	r3, [sp, #44]	@ 0x2c
    9678:	e58d3020 	str	r3, [sp, #32]
                  break;
    967c:	eaffff1c 	b	92f4 <wc+0x430>
    fdadvise (fd, 0, 0, FADVISE_SEQUENTIAL);
    9680:	e59d0034 	ldr	r0, [sp, #52]	@ 0x34
    9684:	e3a03001 	mov	r3, #1
    9688:	e1a01002 	mov	r1, r2
    968c:	eb000315 	bl	a2e8 <fdadvise>
  else if (!count_chars && !count_complicated)
    9690:	eafffe28 	b	8f38 <wc+0x74>
          if (end_pos % page_size)
    9694:	e3a05001 	mov	r5, #1
              off_t hi_pos = end_pos - end_pos % (ST_BLKSIZE (fstatus->st) + 1);
    9698:	e5941050 	ldr	r1, [r4, #80]	@ 0x50
    969c:	e1a00006 	mov	r0, r6
    96a0:	e2413001 	sub	r3, r1, #1
    96a4:	e373021e 	cmn	r3, #-536870911	@ 0xe0000001
    96a8:	92811001 	addls	r1, r1, #1
    96ac:	83011001 	movwhi	r1, #4097	@ 0x1001
    96b0:	eb0033b5 	bl	1658c <__aeabi_idivmod>
    96b4:	e0466001 	sub	r6, r6, r1
              if (0 <= current_pos && current_pos < hi_pos
    96b8:	e1560007 	cmp	r6, r7
    96bc:	d3a05000 	movle	r5, #0
    96c0:	c2055001 	andgt	r5, r5, #1
    96c4:	e3550000 	cmp	r5, #0
    96c8:	0affff85 	beq	94e4 <wc+0x620>
                  && 0 <= lseek (fd, hi_pos, SEEK_CUR))
    96cc:	e59d0034 	ldr	r0, [sp, #52]	@ 0x34
    96d0:	e3a02001 	mov	r2, #1
    96d4:	e1a01006 	mov	r1, r6
    96d8:	eb005850 	bl	1f820 <lseek>
    96dc:	e3500000 	cmp	r0, #0
    96e0:	baffff7f 	blt	94e4 <wc+0x620>
                bytes = hi_pos - current_pos;
    96e4:	e0466007 	sub	r6, r6, r7
    96e8:	e1a03fc6 	asr	r3, r6, #31
    96ec:	e58d6028 	str	r6, [sp, #40]	@ 0x28
    96f0:	e58d3024 	str	r3, [sp, #36]	@ 0x24
      if (! skip_read)
    96f4:	eaffff7d 	b	94f0 <wc+0x62c>
    fdadvise (fd, 0, 0, FADVISE_SEQUENTIAL);
    96f8:	e3a03001 	mov	r3, #1
    96fc:	e59d0034 	ldr	r0, [sp, #52]	@ 0x34
    9700:	e1a01002 	mov	r1, r2
    9704:	eb0002f7 	bl	a2e8 <fdadvise>
  if (count_bytes && !count_chars && !print_lines && !count_complicated)
    9708:	e5db3000 	ldrb	r3, [fp]
    970c:	e3530000 	cmp	r3, #0
    9710:	1afffeb8 	bne	91f8 <wc+0x334>
    9714:	eafffe84 	b	912c <wc+0x268>
    9718:	00029e51 	.word	0x00029e51

0000971c <usage>:
{
    971c:	e92d4080 	push	{r7, lr}
    emit_try_help ();
    9720:	e30b33e4 	movw	r3, #46052	@ 0xb3e4
  if (status != EXIT_SUCCESS)
    9724:	e2507000 	subs	r7, r0, #0
    emit_try_help ();
    9728:	e3403002 	movt	r3, #2
{
    972c:	e24dd038 	sub	sp, sp, #56	@ 0x38
    emit_try_help ();
    9730:	e5932000 	ldr	r2, [r3]
  if (status != EXIT_SUCCESS)
    9734:	0a000008 	beq	975c <usage+0x40>
    emit_try_help ();
    9738:	e30b31e8 	movw	r3, #45544	@ 0xb1e8
    973c:	e3081364 	movw	r1, #33636	@ 0x8364
    9740:	e3403002 	movt	r3, #2
    9744:	e3401002 	movt	r1, #2
    9748:	e5933000 	ldr	r3, [r3]
    974c:	e593000c 	ldr	r0, [r3, #12]
    9750:	eb003bf3 	bl	18724 <fprintf>
  exit (status);
    9754:	e1a00007 	mov	r0, r7
    9758:	eb00340f 	bl	1679c <exit>
      printf (_("\
    975c:	e308038c 	movw	r0, #33676	@ 0x838c
      fputs (_("\
    9760:	e30b61e8 	movw	r6, #45544	@ 0xb1e8
    9764:	e3406002 	movt	r6, #2
      printf (_("\
    9768:	e1a01002 	mov	r1, r2
    976c:	e3400002 	movt	r0, #2
  struct infomap { char const *program; char const *node; } const infomap[] = {
    9770:	e59f4244 	ldr	r4, [pc, #580]	@ 99bc <usage+0x2a0>
    9774:	eb003dfc 	bl	18f6c <printf>
      fputs (_("\
    9778:	e5963000 	ldr	r3, [r6]
    977c:	e30803d4 	movw	r0, #33748	@ 0x83d4
    9780:	e3a020c1 	mov	r2, #193	@ 0xc1
    9784:	e3a01001 	mov	r1, #1
    9788:	e3400002 	movt	r0, #2
  struct infomap const *map_prog = infomap;
    978c:	e1a0500d 	mov	r5, sp
    9790:	e5933008 	ldr	r3, [r3, #8]
    9794:	eb004308 	bl	1a3bc <fwrite_unlocked>
  fputs (_("\n\
    9798:	e5963000 	ldr	r3, [r6]
    979c:	e3080498 	movw	r0, #33944	@ 0x8498
    97a0:	e3a02037 	mov	r2, #55	@ 0x37
    97a4:	e3a01001 	mov	r1, #1
    97a8:	e3400002 	movt	r0, #2
    97ac:	e5933008 	ldr	r3, [r3, #8]
    97b0:	eb004301 	bl	1a3bc <fwrite_unlocked>
      fputs (_("\
    97b4:	e5963000 	ldr	r3, [r6]
    97b8:	e30804d0 	movw	r0, #34000	@ 0x84d0
    97bc:	e3a02f4b 	mov	r2, #300	@ 0x12c
    97c0:	e3a01001 	mov	r1, #1
    97c4:	e3400002 	movt	r0, #2
    97c8:	e5933008 	ldr	r3, [r3, #8]
    97cc:	eb0042fa 	bl	1a3bc <fwrite_unlocked>
      fputs (_("\
    97d0:	e5963000 	ldr	r3, [r6]
    97d4:	e3080600 	movw	r0, #34304	@ 0x8600
    97d8:	e3a02f4b 	mov	r2, #300	@ 0x12c
    97dc:	e3a01001 	mov	r1, #1
    97e0:	e3400002 	movt	r0, #2
    97e4:	e5933008 	ldr	r3, [r3, #8]
    97e8:	eb0042f3 	bl	1a3bc <fwrite_unlocked>
      fputs (_("\
    97ec:	e5963000 	ldr	r3, [r6]
    97f0:	e3080730 	movw	r0, #34608	@ 0x8730
    97f4:	e3a02083 	mov	r2, #131	@ 0x83
    97f8:	e3a01001 	mov	r1, #1
    97fc:	e3400002 	movt	r0, #2
    9800:	e5933008 	ldr	r3, [r3, #8]
    9804:	eb0042ec 	bl	1a3bc <fwrite_unlocked>
      fputs (HELP_OPTION_DESCRIPTION, stdout);
    9808:	e5963000 	ldr	r3, [r6]
    980c:	e30807b4 	movw	r0, #34740	@ 0x87b4
    9810:	e3a0202f 	mov	r2, #47	@ 0x2f
    9814:	e3a01001 	mov	r1, #1
    9818:	e3400002 	movt	r0, #2
    981c:	e5933008 	ldr	r3, [r3, #8]
    9820:	eb0042e5 	bl	1a3bc <fwrite_unlocked>
      fputs (VERSION_OPTION_DESCRIPTION, stdout);
    9824:	e5963000 	ldr	r3, [r6]
    9828:	e30807e4 	movw	r0, #34788	@ 0x87e4
    982c:	e3a02038 	mov	r2, #56	@ 0x38
    9830:	e3a01001 	mov	r1, #1
    9834:	e3400002 	movt	r0, #2
    9838:	e5933008 	ldr	r3, [r3, #8]
    983c:	eb0042de 	bl	1a3bc <fwrite_unlocked>
  struct infomap { char const *program; char const *node; } const infomap[] = {
    9840:	e8b4000f 	ldm	r4!, {r0, r1, r2, r3}
    9844:	e1a0e00d 	mov	lr, sp
  while (map_prog->program && ! STREQ (program, map_prog->program))
    9848:	e308c35c 	movw	ip, #33628	@ 0x835c
    984c:	e340c002 	movt	ip, #2
  struct infomap { char const *program; char const *node; } const infomap[] = {
    9850:	e8ae000f 	stmia	lr!, {r0, r1, r2, r3}
    9854:	e8b4000f 	ldm	r4!, {r0, r1, r2, r3}
    9858:	e8ae000f 	stmia	lr!, {r0, r1, r2, r3}
    985c:	e8b4000f 	ldm	r4!, {r0, r1, r2, r3}
    9860:	e8ae000f 	stmia	lr!, {r0, r1, r2, r3}
    9864:	e8940003 	ldm	r4, {r0, r1}
    9868:	e88e0003 	stm	lr, {r0, r1}
  while (map_prog->program && ! STREQ (program, map_prog->program))
    986c:	e5dc3000 	ldrb	r3, [ip]
    9870:	e3530077 	cmp	r3, #119	@ 0x77
    9874:	1a00002e 	bne	9934 <usage+0x218>
    9878:	e5dc3001 	ldrb	r3, [ip, #1]
    987c:	e3530063 	cmp	r3, #99	@ 0x63
    9880:	1a00002b 	bne	9934 <usage+0x218>
    9884:	e5dc3002 	ldrb	r3, [ip, #2]
    9888:	e3530000 	cmp	r3, #0
    988c:	1a000028 	bne	9934 <usage+0x218>
  if (map_prog->node)
    9890:	e5954004 	ldr	r4, [r5, #4]
  printf (_("\n%s online help: <%s>\n"), PACKAGE_NAME, PACKAGE_URL);
    9894:	e3082820 	movw	r2, #34848	@ 0x8820
    9898:	e3081848 	movw	r1, #34888	@ 0x8848
    989c:	e3080858 	movw	r0, #34904	@ 0x8858
    98a0:	e3402002 	movt	r2, #2
    98a4:	e3401002 	movt	r1, #2
  if (map_prog->node)
    98a8:	e3540000 	cmp	r4, #0
  printf (_("\n%s online help: <%s>\n"), PACKAGE_NAME, PACKAGE_URL);
    98ac:	e3400002 	movt	r0, #2
  if (map_prog->node)
    98b0:	0a000023 	beq	9944 <usage+0x228>
  printf (_("\n%s online help: <%s>\n"), PACKAGE_NAME, PACKAGE_URL);
    98b4:	eb003dac 	bl	18f6c <printf>
  char const *lc_messages = setlocale (LC_MESSAGES, nullptr);
    98b8:	e3a01000 	mov	r1, #0
    98bc:	e3a00006 	mov	r0, #6
    98c0:	eb004606 	bl	1b0e0 <setlocale>
  if (lc_messages && STRNCMP_LIT (lc_messages, "en_"))
    98c4:	e3500000 	cmp	r0, #0
    98c8:	e3085360 	movw	r5, #33632	@ 0x8360
    98cc:	e3405002 	movt	r5, #2
    98d0:	0a000005 	beq	98ec <usage+0x1d0>
    98d4:	e3081870 	movw	r1, #34928	@ 0x8870
    98d8:	e3a02003 	mov	r2, #3
    98dc:	e3401002 	movt	r1, #2
    98e0:	eb004413 	bl	1a934 <strncmp>
    98e4:	e3500000 	cmp	r0, #0
    98e8:	1a00001f 	bne	996c <usage+0x250>
  printf (_("Full documentation <%s%s>\n"),
    98ec:	e3082360 	movw	r2, #33632	@ 0x8360
    98f0:	e3081820 	movw	r1, #34848	@ 0x8820
    98f4:	e30808bc 	movw	r0, #35004	@ 0x88bc
    98f8:	e3402002 	movt	r2, #2
    98fc:	e3401002 	movt	r1, #2
    9900:	e3400002 	movt	r0, #2
    9904:	eb003d98 	bl	18f6c <printf>
  printf (_("or available locally via: info '(coreutils) %s%s'\n"),
    9908:	e3083ac4 	movw	r3, #35524	@ 0x8ac4
    990c:	e3082d5c 	movw	r2, #36188	@ 0x8d5c
    9910:	e3403002 	movt	r3, #2
    9914:	e1540005 	cmp	r4, r5
    9918:	e3402002 	movt	r2, #2
    991c:	01a02003 	moveq	r2, r3
    9920:	e30808d8 	movw	r0, #35032	@ 0x88d8
    9924:	e1a01004 	mov	r1, r4
    9928:	e3400002 	movt	r0, #2
    992c:	eb003d8e 	bl	18f6c <printf>
}
    9930:	eaffff87 	b	9754 <usage+0x38>
  while (map_prog->program && ! STREQ (program, map_prog->program))
    9934:	e5b5c008 	ldr	ip, [r5, #8]!
    9938:	e35c0000 	cmp	ip, #0
    993c:	1affffca 	bne	986c <usage+0x150>
    9940:	eaffffd2 	b	9890 <usage+0x174>
  printf (_("\n%s online help: <%s>\n"), PACKAGE_NAME, PACKAGE_URL);
    9944:	eb003d88 	bl	18f6c <printf>
  char const *lc_messages = setlocale (LC_MESSAGES, nullptr);
    9948:	e1a01004 	mov	r1, r4
    994c:	e3a00006 	mov	r0, #6
    9950:	eb0045e2 	bl	1b0e0 <setlocale>
  if (lc_messages && STRNCMP_LIT (lc_messages, "en_"))
    9954:	e3500000 	cmp	r0, #0
    9958:	0a00000b 	beq	998c <usage+0x270>
  char const *node = program;
    995c:	e3085360 	movw	r5, #33632	@ 0x8360
    9960:	e3405002 	movt	r5, #2
    9964:	e1a04005 	mov	r4, r5
    9968:	eaffffd9 	b	98d4 <usage+0x1b8>
      fputs (_("Report any translation bugs to "
    996c:	e5963000 	ldr	r3, [r6]
    9970:	e3080874 	movw	r0, #34932	@ 0x8874
    9974:	e3a02046 	mov	r2, #70	@ 0x46
    9978:	e3a01001 	mov	r1, #1
    997c:	e3400002 	movt	r0, #2
    9980:	e5933008 	ldr	r3, [r3, #8]
    9984:	eb00428c 	bl	1a3bc <fwrite_unlocked>
    9988:	eaffffd7 	b	98ec <usage+0x1d0>
  printf (_("Full documentation <%s%s>\n"),
    998c:	e3082360 	movw	r2, #33632	@ 0x8360
    9990:	e3081820 	movw	r1, #34848	@ 0x8820
    9994:	e30808bc 	movw	r0, #35004	@ 0x88bc
    9998:	e3402002 	movt	r2, #2
    999c:	e3401002 	movt	r1, #2
    99a0:	e3400002 	movt	r0, #2
  char const *node = program;
    99a4:	e3084360 	movw	r4, #33632	@ 0x8360
  printf (_("Full documentation <%s%s>\n"),
    99a8:	eb003d6f 	bl	18f6c <printf>
  printf (_("or available locally via: info '(coreutils) %s%s'\n"),
    99ac:	e3082ac4 	movw	r2, #35524	@ 0x8ac4
  char const *node = program;
    99b0:	e3404002 	movt	r4, #2
  printf (_("or available locally via: info '(coreutils) %s%s'\n"),
    99b4:	e3402002 	movt	r2, #2
    99b8:	eaffffd8 	b	9920 <usage+0x204>
    99bc:	00029bb0 	.word	0x00029bb0

000099c0 <__argmatch_die>:
#endif

static void
__argmatch_die (void)
{
  ARGMATCH_DIE;
    99c0:	e3a00001 	mov	r0, #1
    99c4:	eaffff54 	b	971c <usage>

000099c8 <argmatch>:
   "y" is a valid argument, for 0, and "n" for 1.  */

ptrdiff_t
argmatch (const char *arg, const char *const *arglist,
          const void *vallist, size_t valsize)
{
    99c8:	e92d4ff0 	push	{r4, r5, r6, r7, r8, r9, sl, fp, lr}
    99cc:	e1a06001 	mov	r6, r1
    99d0:	e24dd00c 	sub	sp, sp, #12
    99d4:	e1a0a002 	mov	sl, r2
    99d8:	e1a07003 	mov	r7, r3
    99dc:	e58d0000 	str	r0, [sp]
  size_t i;                     /* Temporary index in ARGLIST.  */
  size_t arglen;                /* Length of ARG.  */
  ptrdiff_t matchind = -1;      /* Index of first nonexact match.  */
  bool ambiguous = false;       /* If true, multiple nonexact match(es).  */

  arglen = strlen (arg);
    99e0:	fa005aa6 	blx	20480 <strlen>

  /* Test all elements for either exact match or abbreviated matches.  */
  for (i = 0; arglist[i]; i++)
    99e4:	e5964000 	ldr	r4, [r6]
    99e8:	e3540000 	cmp	r4, #0
    99ec:	0a000031 	beq	9ab8 <argmatch+0xf0>
  bool ambiguous = false;       /* If true, multiple nonexact match(es).  */
    99f0:	e3a01000 	mov	r1, #0
    99f4:	e1a0b000 	mov	fp, r0
    99f8:	e1a0500a 	mov	r5, sl
  ptrdiff_t matchind = -1;      /* Index of first nonexact match.  */
    99fc:	e3e09000 	mvn	r9, #0
  for (i = 0; arglist[i]; i++)
    9a00:	e1a08001 	mov	r8, r1
    9a04:	e58d1004 	str	r1, [sp, #4]
    9a08:	ea000009 	b	9a34 <argmatch+0x6c>
            matchind = i;
          else
            {
              /* Second nonexact match found.  */
              if (vallist == NULL
                  || memcmp ((char const *) vallist + valsize * matchind,
    9a0c:	eb00429b 	bl	1a480 <memcmp>
                             (char const *) vallist + valsize * i, valsize))
                {
                  /* There is a real ambiguity, or we could not
                     disambiguate. */
                  ambiguous = true;
    9a10:	e59d3004 	ldr	r3, [sp, #4]
    9a14:	e3500000 	cmp	r0, #0
    9a18:	13a03001 	movne	r3, #1
    9a1c:	e58d3004 	str	r3, [sp, #4]
  for (i = 0; arglist[i]; i++)
    9a20:	e5b64004 	ldr	r4, [r6, #4]!
    9a24:	e2888001 	add	r8, r8, #1
    9a28:	e0855007 	add	r5, r5, r7
    9a2c:	e3540000 	cmp	r4, #0
    9a30:	0a000016 	beq	9a90 <argmatch+0xc8>
      if (!strncmp (arglist[i], arg, arglen))
    9a34:	e1a0200b 	mov	r2, fp
    9a38:	e59d1000 	ldr	r1, [sp]
    9a3c:	e1a00004 	mov	r0, r4
    9a40:	eb0043bb 	bl	1a934 <strncmp>
    9a44:	e1a02000 	mov	r2, r0
          if (strlen (arglist[i]) == arglen)
    9a48:	e1a00004 	mov	r0, r4
      if (!strncmp (arglist[i], arg, arglen))
    9a4c:	e3520000 	cmp	r2, #0
    9a50:	1afffff2 	bne	9a20 <argmatch+0x58>
          if (strlen (arglist[i]) == arglen)
    9a54:	fa005a89 	blx	20480 <strlen>
    9a58:	e1a03000 	mov	r3, r0
                  || memcmp ((char const *) vallist + valsize * matchind,
    9a5c:	e1a02007 	mov	r2, r7
          if (strlen (arglist[i]) == arglen)
    9a60:	e153000b 	cmp	r3, fp
                  || memcmp ((char const *) vallist + valsize * matchind,
    9a64:	e1a01005 	mov	r1, r5
    9a68:	e020a997 	mla	r0, r7, r9, sl
          if (strlen (arglist[i]) == arglen)
    9a6c:	0a00000d 	beq	9aa8 <argmatch+0xe0>
          else if (matchind == -1)
    9a70:	e3790001 	cmn	r9, #1
            matchind = i;
    9a74:	01a09008 	moveq	r9, r8
          else if (matchind == -1)
    9a78:	0affffe8 	beq	9a20 <argmatch+0x58>
              if (vallist == NULL
    9a7c:	e35a0000 	cmp	sl, #0
    9a80:	1affffe1 	bne	9a0c <argmatch+0x44>
                  ambiguous = true;
    9a84:	e3a03001 	mov	r3, #1
    9a88:	e58d3004 	str	r3, [sp, #4]
    9a8c:	eaffffe3 	b	9a20 <argmatch+0x58>
                }
            }
        }
    }
  if (ambiguous)
    return -2;
    9a90:	e59d1004 	ldr	r1, [sp, #4]
    9a94:	e3510000 	cmp	r1, #0
    9a98:	13e09001 	mvnne	r9, #1
  else
    return matchind;
}
    9a9c:	e1a00009 	mov	r0, r9
    9aa0:	e28dd00c 	add	sp, sp, #12
    9aa4:	e8bd8ff0 	pop	{r4, r5, r6, r7, r8, r9, sl, fp, pc}
            return i;
    9aa8:	e1a09008 	mov	r9, r8
}
    9aac:	e1a00009 	mov	r0, r9
    9ab0:	e28dd00c 	add	sp, sp, #12
    9ab4:	e8bd8ff0 	pop	{r4, r5, r6, r7, r8, r9, sl, fp, pc}
  ptrdiff_t matchind = -1;      /* Index of first nonexact match.  */
    9ab8:	e3e09000 	mvn	r9, #0
    return matchind;
    9abc:	eafffff6 	b	9a9c <argmatch+0xd4>

00009ac0 <argmatch_exact>:

ptrdiff_t
argmatch_exact (const char *arg, const char *const *arglist)
{
    9ac0:	e92d4070 	push	{r4, r5, r6, lr}
    9ac4:	e1a06000 	mov	r6, r0
  size_t i;

  /* Test elements for exact match.  */
  for (i = 0; arglist[i]; i++)
    9ac8:	e5910000 	ldr	r0, [r1]
    9acc:	e3500000 	cmp	r0, #0
    9ad0:	0a00000c 	beq	9b08 <argmatch_exact+0x48>
    9ad4:	e1a04001 	mov	r4, r1
    9ad8:	e3a05000 	mov	r5, #0
    9adc:	ea000003 	b	9af0 <argmatch_exact+0x30>
    9ae0:	e5b40004 	ldr	r0, [r4, #4]!
    9ae4:	e2855001 	add	r5, r5, #1
    9ae8:	e3500000 	cmp	r0, #0
    9aec:	0a000005 	beq	9b08 <argmatch_exact+0x48>
    {
      if (!strcmp (arglist[i], arg))
    9af0:	e1a01006 	mov	r1, r6
    9af4:	fa0057b9 	blx	1f9e0 <strcmp>
    9af8:	e3500000 	cmp	r0, #0
    9afc:	1afffff7 	bne	9ae0 <argmatch_exact+0x20>
        return i;
    9b00:	e1a00005 	mov	r0, r5
    9b04:	e8bd8070 	pop	{r4, r5, r6, pc}
    }

  return -1;
    9b08:	e3e00000 	mvn	r0, #0
}
    9b0c:	e8bd8070 	pop	{r4, r5, r6, pc}

00009b10 <argmatch_invalid>:
   VALUE is the invalid value that was given.
   PROBLEM is the return value from argmatch.  */

void
argmatch_invalid (const char *context, const char *value, ptrdiff_t problem)
{
    9b10:	e92d4070 	push	{r4, r5, r6, lr}
  char const *format = (problem == -1
                        ? _("invalid argument %s for %s")
                        : _("ambiguous argument %s for %s"));
    9b14:	e3083bb0 	movw	r3, #35760	@ 0x8bb0
{
    9b18:	e1a0e002 	mov	lr, r2
                        : _("ambiguous argument %s for %s"));
    9b1c:	e308cb94 	movw	ip, #35732	@ 0x8b94
{
    9b20:	e24dd008 	sub	sp, sp, #8
                        : _("ambiguous argument %s for %s"));
    9b24:	e37e0001 	cmn	lr, #1
    9b28:	e3403002 	movt	r3, #2
    9b2c:	e340c002 	movt	ip, #2

  error (0, 0, format, quotearg_n_style (0, ARGMATCH_QUOTING_STYLE, value),
    9b30:	e1a02001 	mov	r2, r1
{
    9b34:	e1a06000 	mov	r6, r0
  error (0, 0, format, quotearg_n_style (0, ARGMATCH_QUOTING_STYLE, value),
    9b38:	e3a01008 	mov	r1, #8
    9b3c:	e3a00000 	mov	r0, #0
                        : _("ambiguous argument %s for %s"));
    9b40:	11a04003 	movne	r4, r3
    9b44:	01a0400c 	moveq	r4, ip
  error (0, 0, format, quotearg_n_style (0, ARGMATCH_QUOTING_STYLE, value),
    9b48:	eb000d85 	bl	d164 <quotearg_n_style>
    9b4c:	e1a01006 	mov	r1, r6
    9b50:	e1a05000 	mov	r5, r0
    9b54:	e3a00001 	mov	r0, #1
    9b58:	eb000f03 	bl	d76c <quote_n>
    9b5c:	e3a01000 	mov	r1, #0
    9b60:	e1a0c000 	mov	ip, r0
    9b64:	e1a03005 	mov	r3, r5
    9b68:	e1a02004 	mov	r2, r4
    9b6c:	e1a00001 	mov	r0, r1
    9b70:	e58dc000 	str	ip, [sp]
    9b74:	eb00016c 	bl	a12c <error>
         quote_n (1, context));
}
    9b78:	e28dd008 	add	sp, sp, #8
    9b7c:	e8bd8070 	pop	{r4, r5, r6, pc}

00009b80 <argmatch_valid>:
   VALLIST is a pointer to an array of values.
   VALSIZE is the size of the elements of VALLIST */
void
argmatch_valid (const char *const *arglist,
                const void *vallist, size_t valsize)
{
    9b80:	e92d4ff0 	push	{r4, r5, r6, r7, r8, r9, sl, fp, lr}
  size_t i;
  const char *last_val = NULL;

  /* We try to put synonyms on the same line.  The assumption is that
     synonyms follow each other */
  fputs (_("Valid arguments are:"), stderr);
    9b84:	e30bb1e8 	movw	fp, #45544	@ 0xb1e8
    9b88:	e340b002 	movt	fp, #2
{
    9b8c:	e1a06000 	mov	r6, r0
  fputs (_("Valid arguments are:"), stderr);
    9b90:	e3080bd0 	movw	r0, #35792	@ 0x8bd0
{
    9b94:	e24dd00c 	sub	sp, sp, #12
  fputs (_("Valid arguments are:"), stderr);
    9b98:	e59b3000 	ldr	r3, [fp]
{
    9b9c:	e1a08001 	mov	r8, r1
    9ba0:	e1a07002 	mov	r7, r2
  fputs (_("Valid arguments are:"), stderr);
    9ba4:	e3400002 	movt	r0, #2
    9ba8:	e3a02014 	mov	r2, #20
    9bac:	e3a01001 	mov	r1, #1
    9bb0:	e593300c 	ldr	r3, [r3, #12]
    9bb4:	eb004200 	bl	1a3bc <fwrite_unlocked>
  for (i = 0; arglist[i]; i++)
    9bb8:	e5965000 	ldr	r5, [r6]
    9bbc:	e3550000 	cmp	r5, #0
    9bc0:	0a000026 	beq	9c60 <argmatch_valid+0xe0>
        fprintf (stderr, "\n  - %s", quote (arglist[i]));
        last_val = (char const *) vallist + valsize * i;
      }
    else
      {
        fprintf (stderr, ", %s", quote (arglist[i]));
    9bc4:	e59b9000 	ldr	r9, [fp]
        fprintf (stderr, "\n  - %s", quote (arglist[i]));
    9bc8:	e3083be8 	movw	r3, #35816	@ 0x8be8
        fprintf (stderr, ", %s", quote (arglist[i]));
    9bcc:	e3081bf0 	movw	r1, #35824	@ 0x8bf0
    9bd0:	e1a04008 	mov	r4, r8
        fprintf (stderr, "\n  - %s", quote (arglist[i]));
    9bd4:	e3403002 	movt	r3, #2
        fprintf (stderr, ", %s", quote (arglist[i]));
    9bd8:	e3401002 	movt	r1, #2
    9bdc:	e1a02009 	mov	r2, r9
    9be0:	e1a09005 	mov	r9, r5
    9be4:	e1a05002 	mov	r5, r2
    9be8:	e58d3000 	str	r3, [sp]
    9bec:	e58d1004 	str	r1, [sp, #4]
        fprintf (stderr, "\n  - %s", quote (arglist[i]));
    9bf0:	e595a00c 	ldr	sl, [r5, #12]
    9bf4:	e1a00009 	mov	r0, r9
    9bf8:	eb000edf 	bl	d77c <quote>
    9bfc:	e1a02000 	mov	r2, r0
    9c00:	e59d1000 	ldr	r1, [sp]
    9c04:	e1a0000a 	mov	r0, sl
        last_val = (char const *) vallist + valsize * i;
    9c08:	e1a0a008 	mov	sl, r8
        fprintf (stderr, "\n  - %s", quote (arglist[i]));
    9c0c:	eb003ac4 	bl	18724 <fprintf>
  for (i = 0; arglist[i]; i++)
    9c10:	e5b69004 	ldr	r9, [r6, #4]!
    9c14:	e0844007 	add	r4, r4, r7
        || memcmp (last_val, (char const *) vallist + valsize * i, valsize))
    9c18:	e1a02007 	mov	r2, r7
    9c1c:	e1a0000a 	mov	r0, sl
    9c20:	e1a01004 	mov	r1, r4
    9c24:	e1a08004 	mov	r8, r4
  for (i = 0; arglist[i]; i++)
    9c28:	e3590000 	cmp	r9, #0
    9c2c:	0a00000b 	beq	9c60 <argmatch_valid+0xe0>
        || memcmp (last_val, (char const *) vallist + valsize * i, valsize))
    9c30:	eb004212 	bl	1a480 <memcmp>
    9c34:	e3500000 	cmp	r0, #0
        fprintf (stderr, ", %s", quote (arglist[i]));
    9c38:	e59b5000 	ldr	r5, [fp]
        || memcmp (last_val, (char const *) vallist + valsize * i, valsize))
    9c3c:	1affffeb 	bne	9bf0 <argmatch_valid+0x70>
        fprintf (stderr, ", %s", quote (arglist[i]));
    9c40:	e595500c 	ldr	r5, [r5, #12]
    9c44:	e1a00009 	mov	r0, r9
    9c48:	eb000ecb 	bl	d77c <quote>
    9c4c:	e59d1004 	ldr	r1, [sp, #4]
    9c50:	e1a02000 	mov	r2, r0
    9c54:	e1a00005 	mov	r0, r5
    9c58:	eb003ab1 	bl	18724 <fprintf>
    9c5c:	eaffffeb 	b	9c10 <argmatch_valid+0x90>
      }
  putc ('\n', stderr);
    9c60:	e59b3000 	ldr	r3, [fp]
    9c64:	e3a0000a 	mov	r0, #10
    9c68:	e593100c 	ldr	r1, [r3, #12]
}
    9c6c:	e28dd00c 	add	sp, sp, #12
    9c70:	e8bd4ff0 	pop	{r4, r5, r6, r7, r8, r9, sl, fp, lr}
  putc ('\n', stderr);
    9c74:	ea003d25 	b	19110 <putc_unlocked>

00009c78 <__xargmatch_internal>:
__xargmatch_internal (const char *context,
                      const char *arg, const char *const *arglist,
                      const void *vallist, size_t valsize,
                      argmatch_exit_fn exit_fn,
                      bool allow_abbreviation)
{
    9c78:	e92d43f0 	push	{r4, r5, r6, r7, r8, r9, lr}
    9c7c:	e24dd00c 	sub	sp, sp, #12
    9c80:	e5dd4030 	ldrb	r4, [sp, #48]	@ 0x30
    9c84:	e1a08000 	mov	r8, r0
    9c88:	e1a05001 	mov	r5, r1
    9c8c:	e1a06002 	mov	r6, r2
    9c90:	e1a07003 	mov	r7, r3
  ptrdiff_t res;

  if (allow_abbreviation)
    9c94:	e3540000 	cmp	r4, #0
    9c98:	1a000026 	bne	9d38 <__xargmatch_internal+0xc0>
  for (i = 0; arglist[i]; i++)
    9c9c:	e5920000 	ldr	r0, [r2]
    9ca0:	e3500000 	cmp	r0, #0
    9ca4:	11a09002 	movne	r9, r2
    9ca8:	1a00001b 	bne	9d1c <__xargmatch_internal+0xa4>
                        : _("ambiguous argument %s for %s"));
    9cac:	e3084b94 	movw	r4, #35732	@ 0x8b94
    9cb0:	e3404002 	movt	r4, #2
  error (0, 0, format, quotearg_n_style (0, ARGMATCH_QUOTING_STYLE, value),
    9cb4:	e1a02005 	mov	r2, r5
    9cb8:	e3a01008 	mov	r1, #8
    9cbc:	e3a00000 	mov	r0, #0
    9cc0:	eb000d27 	bl	d164 <quotearg_n_style>
    9cc4:	e1a01008 	mov	r1, r8
    9cc8:	e1a05000 	mov	r5, r0
    9ccc:	e3a00001 	mov	r0, #1
    9cd0:	eb000ea5 	bl	d76c <quote_n>
    9cd4:	e3a01000 	mov	r1, #0
    9cd8:	e1a03005 	mov	r3, r5
    9cdc:	e1a02004 	mov	r2, r4
    9ce0:	e58d0000 	str	r0, [sp]
    9ce4:	e1a00001 	mov	r0, r1
    9ce8:	eb00010f 	bl	a12c <error>
    /* Success. */
    return res;

  /* We failed.  Explain why. */
  argmatch_invalid (context, arg, res);
  argmatch_valid (arglist, vallist, valsize);
    9cec:	e1a00006 	mov	r0, r6
    9cf0:	e59d2028 	ldr	r2, [sp, #40]	@ 0x28
    9cf4:	e1a01007 	mov	r1, r7
    9cf8:	ebffffa0 	bl	9b80 <argmatch_valid>
  (*exit_fn) ();
    9cfc:	e59d302c 	ldr	r3, [sp, #44]	@ 0x2c
    9d00:	e12fff33 	blx	r3

  return -1; /* To please the compilers. */
    9d04:	e3e00000 	mvn	r0, #0
    9d08:	ea000011 	b	9d54 <__xargmatch_internal+0xdc>
  for (i = 0; arglist[i]; i++)
    9d0c:	e5b90004 	ldr	r0, [r9, #4]!
    9d10:	e2844001 	add	r4, r4, #1
    9d14:	e3500000 	cmp	r0, #0
    9d18:	0affffe3 	beq	9cac <__xargmatch_internal+0x34>
      if (!strcmp (arglist[i], arg))
    9d1c:	e1a01005 	mov	r1, r5
    9d20:	fa00572e 	blx	1f9e0 <strcmp>
    9d24:	e3500000 	cmp	r0, #0
    9d28:	1afffff7 	bne	9d0c <__xargmatch_internal+0x94>
        return i;
    9d2c:	e1a00004 	mov	r0, r4
}
    9d30:	e28dd00c 	add	sp, sp, #12
    9d34:	e8bd83f0 	pop	{r4, r5, r6, r7, r8, r9, pc}
    res = argmatch (arg, arglist, vallist, valsize);
    9d38:	e59d3028 	ldr	r3, [sp, #40]	@ 0x28
    9d3c:	e1a02007 	mov	r2, r7
    9d40:	e1a01006 	mov	r1, r6
    9d44:	e1a00005 	mov	r0, r5
    9d48:	ebffff1e 	bl	99c8 <argmatch>
  if (res >= 0)
    9d4c:	e3500000 	cmp	r0, #0
    9d50:	ba000001 	blt	9d5c <__xargmatch_internal+0xe4>
}
    9d54:	e28dd00c 	add	sp, sp, #12
    9d58:	e8bd83f0 	pop	{r4, r5, r6, r7, r8, r9, pc}
                        : _("ambiguous argument %s for %s"));
    9d5c:	e3083bb0 	movw	r3, #35760	@ 0x8bb0
    9d60:	e3084b94 	movw	r4, #35732	@ 0x8b94
    9d64:	e3403002 	movt	r3, #2
    9d68:	e3700001 	cmn	r0, #1
    9d6c:	e3404002 	movt	r4, #2
    9d70:	11a04003 	movne	r4, r3
    9d74:	eaffffce 	b	9cb4 <__xargmatch_internal+0x3c>

00009d78 <argmatch_to_argument>:
   return the first corresponding argument in ARGLIST */
const char *
argmatch_to_argument (const void *value,
                      const char *const *arglist,
                      const void *vallist, size_t valsize)
{
    9d78:	e92d41f0 	push	{r4, r5, r6, r7, r8, lr}
  size_t i;

  for (i = 0; arglist[i]; i++)
    9d7c:	e5917000 	ldr	r7, [r1]
    9d80:	e3570000 	cmp	r7, #0
    9d84:	0a00000e 	beq	9dc4 <argmatch_to_argument+0x4c>
    9d88:	e1a05001 	mov	r5, r1
    9d8c:	e1a08000 	mov	r8, r0
    9d90:	e1a04002 	mov	r4, r2
    9d94:	e1a06003 	mov	r6, r3
    9d98:	ea000002 	b	9da8 <argmatch_to_argument+0x30>
    9d9c:	e5b57004 	ldr	r7, [r5, #4]!
    9da0:	e3570000 	cmp	r7, #0
    9da4:	0a000006 	beq	9dc4 <argmatch_to_argument+0x4c>
    if (!memcmp (value, (char const *) vallist + valsize * i, valsize))
    9da8:	e1a01004 	mov	r1, r4
    9dac:	e1a02006 	mov	r2, r6
    9db0:	e1a00008 	mov	r0, r8
  for (i = 0; arglist[i]; i++)
    9db4:	e0844006 	add	r4, r4, r6
    if (!memcmp (value, (char const *) vallist + valsize * i, valsize))
    9db8:	eb0041b0 	bl	1a480 <memcmp>
    9dbc:	e3500000 	cmp	r0, #0
    9dc0:	1afffff5 	bne	9d9c <argmatch_to_argument+0x24>
      return arglist[i];
  return NULL;
}
    9dc4:	e1a00007 	mov	r0, r7
    9dc8:	e8bd81f0 	pop	{r4, r5, r6, r7, r8, pc}

00009dcc <argv_iter_init_argv>:
  char **p;
};

struct argv_iterator *
argv_iter_init_argv (char **argv)
{
    9dcc:	e92d4010 	push	{r4, lr}
    9dd0:	e1a04000 	mov	r4, r0
  struct argv_iterator *ai = malloc (sizeof *ai);
    9dd4:	e3a00018 	mov	r0, #24
    9dd8:	eb00120d 	bl	e614 <rpl_malloc>
  if (!ai)
    9ddc:	e3500000 	cmp	r0, #0
    return NULL;
  ai->fp = NULL;
    9de0:	13a03000 	movne	r3, #0
  ai->arg_list = argv;
    9de4:	15804010 	strne	r4, [r0, #16]
  ai->fp = NULL;
    9de8:	15803000 	strne	r3, [r0]
  ai->arg_list = argv;
    9dec:	15804014 	strne	r4, [r0, #20]
  ai->p = argv;
  return ai;
}
    9df0:	e8bd8010 	pop	{r4, pc}

00009df4 <argv_iter_init_stream>:

/* Initialize to read from the stream, FP.
   The input is expected to contain a list of NUL-delimited tokens.  */
struct argv_iterator *
argv_iter_init_stream (FILE *fp)
{
    9df4:	e92d4010 	push	{r4, lr}
    9df8:	e1a04000 	mov	r4, r0
  struct argv_iterator *ai = malloc (sizeof *ai);
    9dfc:	e3a00018 	mov	r0, #24
    9e00:	eb001203 	bl	e614 <rpl_malloc>
  if (!ai)
    9e04:	e3500000 	cmp	r0, #0
    9e08:	08bd8010 	popeq	{r4, pc}
    return NULL;
  ai->fp = fp;
  ai->tok = NULL;
    9e0c:	e3a03000 	mov	r3, #0
  ai->fp = fp;
    9e10:	e5804000 	str	r4, [r0]
  ai->tok = NULL;
    9e14:	e5803008 	str	r3, [r0, #8]
  ai->buf_len = 0;
    9e18:	e580300c 	str	r3, [r0, #12]

  ai->item_idx = 0;
    9e1c:	e5803004 	str	r3, [r0, #4]
  ai->arg_list = NULL;
    9e20:	e5803010 	str	r3, [r0, #16]
  return ai;
}
    9e24:	e8bd8010 	pop	{r4, pc}

00009e28 <argv_iter>:

char *
argv_iter (struct argv_iterator *ai, enum argv_iter_err *err)
{
  if (ai->fp)
    9e28:	e5903000 	ldr	r3, [r0]
{
    9e2c:	e92d4070 	push	{r4, r5, r6, lr}
    9e30:	e1a04000 	mov	r4, r0
    9e34:	e1a05001 	mov	r5, r1
  if (ai->fp)
    9e38:	e3530000 	cmp	r3, #0
    9e3c:	0a00000c 	beq	9e74 <argv_iter+0x4c>
    {
      ssize_t len = getdelim (&ai->tok, &ai->buf_len, '\0', ai->fp);
    9e40:	e280100c 	add	r1, r0, #12
    9e44:	e3a02000 	mov	r2, #0
    9e48:	e2800008 	add	r0, r0, #8
    9e4c:	eb0001c3 	bl	a560 <getdelim>
      if (len < 0)
    9e50:	e3500000 	cmp	r0, #0
    9e54:	ba000011 	blt	9ea0 <argv_iter+0x78>
        {
          *err = feof (ai->fp) ? AI_ERR_EOF : AI_ERR_READ;
          return NULL;
        }

      *err = AI_ERR_OK;
    9e58:	e3a03001 	mov	r3, #1
    9e5c:	e5c53000 	strb	r3, [r5]
      ai->item_idx++;
    9e60:	e5943004 	ldr	r3, [r4, #4]
      return ai->tok;
    9e64:	e5940008 	ldr	r0, [r4, #8]
      ai->item_idx++;
    9e68:	e2833001 	add	r3, r3, #1
    9e6c:	e5843004 	str	r3, [r4, #4]
      return ai->tok;
    9e70:	e8bd8070 	pop	{r4, r5, r6, pc}
    }
  else
    {
      if (*(ai->p) == NULL)
    9e74:	e5903014 	ldr	r3, [r0, #20]
    9e78:	e5933000 	ldr	r3, [r3]
    9e7c:	e3530000 	cmp	r3, #0
    9e80:	0a00000e 	beq	9ec0 <argv_iter+0x98>
          *err = AI_ERR_EOF;
          return NULL;
        }
      else
        {
          *err = AI_ERR_OK;
    9e84:	e3a03001 	mov	r3, #1
    9e88:	e5c13000 	strb	r3, [r1]
          return *(ai->p++);
    9e8c:	e5903014 	ldr	r3, [r0, #20]
    9e90:	e5930000 	ldr	r0, [r3]
    9e94:	e2833004 	add	r3, r3, #4
    9e98:	e5843014 	str	r3, [r4, #20]
        }
    }
}
    9e9c:	e8bd8070 	pop	{r4, r5, r6, pc}
          *err = feof (ai->fp) ? AI_ERR_EOF : AI_ERR_READ;
    9ea0:	e5943000 	ldr	r3, [r4]
    9ea4:	e1d330bc 	ldrh	r3, [r3, #12]
    9ea8:	e3130020 	tst	r3, #32
    9eac:	03a03004 	moveq	r3, #4
    9eb0:	13a03002 	movne	r3, #2
    9eb4:	e5c53000 	strb	r3, [r5]
          return NULL;
    9eb8:	e3a00000 	mov	r0, #0
    9ebc:	e8bd8070 	pop	{r4, r5, r6, pc}
          *err = AI_ERR_EOF;
    9ec0:	e3a03002 	mov	r3, #2
    9ec4:	e5c13000 	strb	r3, [r1]
          return NULL;
    9ec8:	eafffffa 	b	9eb8 <argv_iter+0x90>

00009ecc <argv_iter_n_args>:

size_t
argv_iter_n_args (struct argv_iterator const *ai)
{
  return ai->fp ? ai->item_idx : ai->p - ai->arg_list;
    9ecc:	e5903000 	ldr	r3, [r0]
    9ed0:	e3530000 	cmp	r3, #0
    9ed4:	01c021d0 	ldrdeq	r2, [r0, #16]
    9ed8:	15900004 	ldrne	r0, [r0, #4]
    9edc:	00430002 	subeq	r0, r3, r2
    9ee0:	01a00140 	asreq	r0, r0, #2
}
    9ee4:	e12fff1e 	bx	lr

00009ee8 <argv_iter_free>:

void
argv_iter_free (struct argv_iterator *ai)
{
  if (ai->fp)
    9ee8:	e5903000 	ldr	r3, [r0]
{
    9eec:	e92d4010 	push	{r4, lr}
    9ef0:	e1a04000 	mov	r4, r0
  if (ai->fp)
    9ef4:	e3530000 	cmp	r3, #0
    9ef8:	0a000001 	beq	9f04 <argv_iter_free+0x1c>
    free (ai->tok);
    9efc:	e5900008 	ldr	r0, [r0, #8]
    9f00:	eb000154 	bl	a458 <rpl_free>
  free (ai);
    9f04:	e1a00004 	mov	r0, r4
}
    9f08:	e8bd4010 	pop	{r4, lr}
  free (ai);
    9f0c:	ea000151 	b	a458 <rpl_free>

00009f10 <rpl_btowc>:
#include <string.h>

wint_t
btowc (int c)
{
  if (c != EOF)
    9f10:	e3700001 	cmn	r0, #1
    9f14:	0a00000f 	beq	9f58 <rpl_btowc+0x48>
{
    9f18:	e52de004 	push	{lr}		@ (str lr, [sp, #-4]!)
_GL_INLINE
# endif
_GL_ARG_NONNULL ((1)) void
mbszero (mbstate_t *ps)
{
  memset (ps, 0, _GL_MBSTATE_ZERO_SIZE);
    9f1c:	e3a01000 	mov	r1, #0
    9f20:	e24dd014 	sub	sp, sp, #20

      buf[0] = c;
#if HAVE_MBRTOWC
      mbstate_t state;
      mbszero (&state);
      size_t ret = mbrtowc (&wc, buf, 1, &state);
    9f24:	e3a02001 	mov	r2, #1
    9f28:	e28d3008 	add	r3, sp, #8
      buf[0] = c;
    9f2c:	e5cd0000 	strb	r0, [sp]
      size_t ret = mbrtowc (&wc, buf, 1, &state);
    9f30:	e28d0004 	add	r0, sp, #4
    9f34:	e58d1008 	str	r1, [sp, #8]
    9f38:	e58d100c 	str	r1, [sp, #12]
    9f3c:	e1a0100d 	mov	r1, sp
    9f40:	eb000546 	bl	b460 <rpl_mbrtowc>
      if (!(ret == (size_t)(-1) || ret == (size_t)(-2)))
    9f44:	e3700003 	cmn	r0, #3
#else
      if (mbtowc (&wc, buf, 1) >= 0)
#endif
        return wc;
    9f48:	959d0004 	ldrls	r0, [sp, #4]
    }
  return WEOF;
    9f4c:	83e00000 	mvnhi	r0, #0
}
    9f50:	e28dd014 	add	sp, sp, #20
    9f54:	e49df004 	pop	{pc}		@ (ldr pc, [sp], #4)
  return WEOF;
    9f58:	e3e00000 	mvn	r0, #0
}
    9f5c:	e12fff1e 	bx	lr

00009f60 <close_stdout_set_file_name>:
/* Set the file name to be reported in the event an error is detected
   by close_stdout.  */
void
close_stdout_set_file_name (const char *file)
{
  file_name = file;
    9f60:	e30b33a0 	movw	r3, #45984	@ 0xb3a0
    9f64:	e3403002 	movt	r3, #2
    9f68:	e5830000 	str	r0, [r3]
}
    9f6c:	e12fff1e 	bx	lr

00009f70 <close_stdout_set_ignore_EPIPE>:
   and should not lead to a diagnostic message.  */

void
close_stdout_set_ignore_EPIPE (bool ignore)
{
  ignore_EPIPE = ignore;
    9f70:	e30b33a0 	movw	r3, #45984	@ 0xb3a0
    9f74:	e3403002 	movt	r3, #2
    9f78:	e5c30004 	strb	r0, [r3, #4]
}
    9f7c:	e12fff1e 	bx	lr

00009f80 <close_stdout>:
   tools (most notably 'make' and other build-management systems) depend
   on being able to detect failure in other tools via their exit status.  */

void
close_stdout (void)
{
    9f80:	e92d4030 	push	{r4, r5, lr}
  if (close_stream (stdout) != 0
    9f84:	e30b41e8 	movw	r4, #45544	@ 0xb1e8
    9f88:	e3404002 	movt	r4, #2
{
    9f8c:	e24dd00c 	sub	sp, sp, #12
  if (close_stream (stdout) != 0
    9f90:	e5943000 	ldr	r3, [r4]
    9f94:	e5930008 	ldr	r0, [r3, #8]
    9f98:	eb001208 	bl	e7c0 <close_stream>
    9f9c:	e3500000 	cmp	r0, #0
    9fa0:	0a000008 	beq	9fc8 <close_stdout+0x48>
      && !(ignore_EPIPE && errno == EPIPE))
    9fa4:	e30b53a0 	movw	r5, #45984	@ 0xb3a0
    9fa8:	e3405002 	movt	r5, #2
    9fac:	e5d53004 	ldrb	r3, [r5, #4]
    9fb0:	e3530000 	cmp	r3, #0
    9fb4:	0a00000a 	beq	9fe4 <close_stdout+0x64>
    9fb8:	eb004615 	bl	1b814 <__errno>
    9fbc:	e5903000 	ldr	r3, [r0]
    9fc0:	e3530020 	cmp	r3, #32
    9fc4:	1a000006 	bne	9fe4 <close_stdout+0x64>
      _exit (exit_failure);
    }

  /* Close stderr only if not sanitizing, as sanitizers may report to
     stderr after this function returns.  */
  if (!SANITIZE_ADDRESS && close_stream (stderr) != 0)
    9fc8:	e5943000 	ldr	r3, [r4]
    9fcc:	e593000c 	ldr	r0, [r3, #12]
    9fd0:	eb0011fa 	bl	e7c0 <close_stream>
    9fd4:	e3500000 	cmp	r0, #0
    9fd8:	1a000012 	bne	a028 <close_stdout+0xa8>
    _exit (exit_failure);
}
    9fdc:	e28dd00c 	add	sp, sp, #12
    9fe0:	e8bd8030 	pop	{r4, r5, pc}
      if (file_name)
    9fe4:	e5954000 	ldr	r4, [r5]
    9fe8:	e3540000 	cmp	r4, #0
    9fec:	0a000011 	beq	a038 <close_stdout+0xb8>
        error (0, errno, "%s: %s", quotearg_colon (file_name),
    9ff0:	eb004607 	bl	1b814 <__errno>
    9ff4:	e1a03000 	mov	r3, r0
    9ff8:	e5950000 	ldr	r0, [r5]
    9ffc:	e5934000 	ldr	r4, [r3]
    a000:	eb000cfe 	bl	d400 <quotearg_colon>
    a004:	e308cc00 	movw	ip, #35840	@ 0x8c00
    a008:	e3082bf8 	movw	r2, #35832	@ 0x8bf8
    a00c:	e340c002 	movt	ip, #2
    a010:	e1a03000 	mov	r3, r0
    a014:	e3402002 	movt	r2, #2
    a018:	e1a01004 	mov	r1, r4
    a01c:	e3a00000 	mov	r0, #0
    a020:	e58dc000 	str	ip, [sp]
    a024:	eb000040 	bl	a12c <error>
    _exit (exit_failure);
    a028:	e30b3014 	movw	r3, #45076	@ 0xb014
    a02c:	e3403002 	movt	r3, #2
    a030:	e5930000 	ldr	r0, [r3]
    a034:	eb00559e 	bl	1f6b4 <_exit>
        error (0, errno, "%s", write_error);
    a038:	eb0045f5 	bl	1b814 <__errno>
    a03c:	e3083c00 	movw	r3, #35840	@ 0x8c00
    a040:	e3082bfc 	movw	r2, #35836	@ 0x8bfc
    a044:	e5901000 	ldr	r1, [r0]
    a048:	e3403002 	movt	r3, #2
    a04c:	e3402002 	movt	r2, #2
    a050:	e1a00004 	mov	r0, r4
    a054:	eb000034 	bl	a12c <error>
      _exit (exit_failure);
    a058:	eafffff2 	b	a028 <close_stdout+0xa8>

0000a05c <print_errno_message>:
    fflush (stdout);
}

static void
print_errno_message (int errnum)
{
    a05c:	e52de004 	push	{lr}		@ (str lr, [sp, #-4]!)
    a060:	e24ddb01 	sub	sp, sp, #1024	@ 0x400
    a064:	e24dd004 	sub	sp, sp, #4
  char const *s;

#if _LIBC || GNULIB_STRERROR_R_POSIX || defined HAVE_STRERROR_R
  char errbuf[1024];
# if _LIBC || (!GNULIB_STRERROR_R_POSIX && STRERROR_R_CHAR_P)
  s = __strerror_r (errnum, errbuf, sizeof errbuf);
    a068:	e3a02b01 	mov	r2, #1024	@ 0x400
    a06c:	e1a0100d 	mov	r1, sp
    a070:	eb00421a 	bl	1a8e0 <strerror_r>
#endif

#if _LIBC
  __fxprintf (NULL, ": %s", s);
#else
  fprintf (stderr, ": %s", s);
    a074:	e30b31e8 	movw	r3, #45544	@ 0xb1e8
    a078:	e3500000 	cmp	r0, #0
    a07c:	e3403002 	movt	r3, #2
    s = _("Unknown system error");
    a080:	e3082c0c 	movw	r2, #35852	@ 0x8c0c
  fprintf (stderr, ": %s", s);
    a084:	e5933000 	ldr	r3, [r3]
    a088:	e3081c24 	movw	r1, #35876	@ 0x8c24
    s = _("Unknown system error");
    a08c:	e3402002 	movt	r2, #2
  fprintf (stderr, ": %s", s);
    a090:	e3401002 	movt	r1, #2
    a094:	11a02000 	movne	r2, r0
    a098:	e593000c 	ldr	r0, [r3, #12]
    a09c:	eb0039a0 	bl	18724 <fprintf>
#endif
}
    a0a0:	e28ddb01 	add	sp, sp, #1024	@ 0x400
    a0a4:	e28dd004 	add	sp, sp, #4
    a0a8:	e49df004 	pop	{pc}		@ (ldr pc, [sp], #4)

0000a0ac <error_tail>:

static void _GL_ATTRIBUTE_FORMAT_PRINTF_STANDARD (3, 0) _GL_ARG_NONNULL ((3))
error_tail (int status, int errnum, const char *message, va_list args)
{
    a0ac:	e92d4070 	push	{r4, r5, r6, lr}
      if (use_malloc)
        free (wmessage);
    }
  else
#endif
    vfprintf (stderr, message, args);
    a0b0:	e30b41e8 	movw	r4, #45544	@ 0xb1e8
    a0b4:	e3404002 	movt	r4, #2
{
    a0b8:	e1a0c002 	mov	ip, r2
    vfprintf (stderr, message, args);
    a0bc:	e1a02003 	mov	r2, r3
{
    a0c0:	e1a05001 	mov	r5, r1
    vfprintf (stderr, message, args);
    a0c4:	e5943000 	ldr	r3, [r4]
    a0c8:	e1a0100c 	mov	r1, ip
{
    a0cc:	e1a06000 	mov	r6, r0
    vfprintf (stderr, message, args);
    a0d0:	e593000c 	ldr	r0, [r3, #12]
    a0d4:	eb00116b 	bl	e688 <rpl_vfprintf>

  ++error_message_count;
    a0d8:	e30b33a8 	movw	r3, #45992	@ 0xb3a8
  if (errnum)
    a0dc:	e3550000 	cmp	r5, #0
  ++error_message_count;
    a0e0:	e3403002 	movt	r3, #2
    a0e4:	e5932000 	ldr	r2, [r3]
    a0e8:	e2822001 	add	r2, r2, #1
    a0ec:	e5832000 	str	r2, [r3]
  if (errnum)
    a0f0:	1a00000a 	bne	a120 <error_tail+0x74>
    print_errno_message (errnum);
#if _LIBC
  __fxprintf (NULL, "\n");
#else
  putc ('\n', stderr);
    a0f4:	e5943000 	ldr	r3, [r4]
    a0f8:	e3a0000a 	mov	r0, #10
    a0fc:	e593100c 	ldr	r1, [r3, #12]
    a100:	eb003c02 	bl	19110 <putc_unlocked>
#endif
  fflush (stderr);
    a104:	e5943000 	ldr	r3, [r4]
    a108:	e593000c 	ldr	r0, [r3, #12]
    a10c:	eb003fbd 	bl	1a008 <fflush_unlocked>
  if (status)
    a110:	e3560000 	cmp	r6, #0
    a114:	08bd8070 	popeq	{r4, r5, r6, pc}
    exit (status);
    a118:	e1a00006 	mov	r0, r6
    a11c:	eb00319e 	bl	1679c <exit>
    print_errno_message (errnum);
    a120:	e1a00005 	mov	r0, r5
    a124:	ebffffcc 	bl	a05c <print_errno_message>
    a128:	eafffff1 	b	a0f4 <error_tail+0x48>

0000a12c <error>:
   format string with optional args.
   If ERRNUM is nonzero, print its corresponding system error message.
   Exit with status STATUS if it is nonzero.  */
void
error (int status, int errnum, const char *message, ...)
{
    a12c:	e92d000c 	push	{r2, r3}
    a130:	e92d4070 	push	{r4, r5, r6, lr}
    a134:	e1a04000 	mov	r4, r0
    a138:	e24dd008 	sub	sp, sp, #8
    a13c:	e1a05001 	mov	r5, r1
  return 0 <= fcntl (fd, F_GETFL);
    a140:	e3a00001 	mov	r0, #1
    a144:	e3a01003 	mov	r1, #3
    a148:	eb0045e3 	bl	1b8dc <fcntl>
  if (0 <= stdout_fd && is_open (stdout_fd))
    a14c:	e3500000 	cmp	r0, #0
    a150:	ba000004 	blt	a168 <error+0x3c>
    fflush (stdout);
    a154:	e30b31e8 	movw	r3, #45544	@ 0xb1e8
    a158:	e3403002 	movt	r3, #2
    a15c:	e5933000 	ldr	r3, [r3]
    a160:	e5930008 	ldr	r0, [r3, #8]
    a164:	eb003fa7 	bl	1a008 <fflush_unlocked>

  flush_stdout ();
#ifdef _LIBC
  _IO_flockfile (stderr);
#endif
  if (error_print_progname)
    a168:	e30b33a8 	movw	r3, #45992	@ 0xb3a8
    a16c:	e3403002 	movt	r3, #2
    a170:	e5933004 	ldr	r3, [r3, #4]
    a174:	e3530000 	cmp	r3, #0
    a178:	0a00000a 	beq	a1a8 <error+0x7c>
    (*error_print_progname) ();
    a17c:	e12fff33 	blx	r3
#else
      fprintf (stderr, "%s: ", program_name);
#endif
    }

  va_start (args, message);
    a180:	e28d301c 	add	r3, sp, #28
  error_tail (status, errnum, message, args);
    a184:	e59d2018 	ldr	r2, [sp, #24]
    a188:	e1a01005 	mov	r1, r5
    a18c:	e1a00004 	mov	r0, r4
  va_start (args, message);
    a190:	e58d3004 	str	r3, [sp, #4]
  error_tail (status, errnum, message, args);
    a194:	ebffffc4 	bl	a0ac <error_tail>
  _IO_funlockfile (stderr);
# ifdef __libc_ptf_call
  __libc_ptf_call (pthread_setcancelstate, (state, NULL), 0);
# endif
#endif
}
    a198:	e28dd008 	add	sp, sp, #8
    a19c:	e8bd4070 	pop	{r4, r5, r6, lr}
    a1a0:	e28dd008 	add	sp, sp, #8
    a1a4:	e12fff1e 	bx	lr
      fprintf (stderr, "%s: ", program_name);
    a1a8:	e30b31e8 	movw	r3, #45544	@ 0xb1e8
    a1ac:	e3403002 	movt	r3, #2
    a1b0:	e5933000 	ldr	r3, [r3]
    a1b4:	e593600c 	ldr	r6, [r3, #12]
    a1b8:	eb000476 	bl	b398 <getprogname>
    a1bc:	e3081c2c 	movw	r1, #35884	@ 0x8c2c
    a1c0:	e1a02000 	mov	r2, r0
    a1c4:	e3401002 	movt	r1, #2
    a1c8:	e1a00006 	mov	r0, r6
    a1cc:	eb003954 	bl	18724 <fprintf>
    a1d0:	eaffffea 	b	a180 <error+0x54>

0000a1d4 <error_at_line>:
int error_one_per_line;

void
error_at_line (int status, int errnum, const char *file_name,
               unsigned int line_number, const char *message, ...)
{
    a1d4:	e92d43f0 	push	{r4, r5, r6, r7, r8, r9, lr}
  va_list args;

  if (error_one_per_line)
    a1d8:	e30b43a8 	movw	r4, #45992	@ 0xb3a8
    a1dc:	e3404002 	movt	r4, #2
{
    a1e0:	e1a06003 	mov	r6, r3
    a1e4:	e24dd00c 	sub	sp, sp, #12
    a1e8:	e1a08000 	mov	r8, r0
  if (error_one_per_line)
    a1ec:	e5943008 	ldr	r3, [r4, #8]
{
    a1f0:	e1a09001 	mov	r9, r1
    a1f4:	e1a05002 	mov	r5, r2
  if (error_one_per_line)
    a1f8:	e3530000 	cmp	r3, #0
    a1fc:	0a000004 	beq	a214 <error_at_line+0x40>
    {
      static const char *old_file_name;
      static unsigned int old_line_number;

      if (old_line_number == line_number
    a200:	e594300c 	ldr	r3, [r4, #12]
    a204:	e1530006 	cmp	r3, r6
    a208:	0a000022 	beq	a298 <error_at_line+0xc4>
                  && strcmp (old_file_name, file_name) == 0)))

        /* Simply return and print nothing.  */
        return;

      old_file_name = file_name;
    a20c:	e5845010 	str	r5, [r4, #16]
      old_line_number = line_number;
    a210:	e584600c 	str	r6, [r4, #12]
  return 0 <= fcntl (fd, F_GETFL);
    a214:	e3a01003 	mov	r1, #3
    a218:	e3a00001 	mov	r0, #1
    a21c:	eb0045ae 	bl	1b8dc <fcntl>
  if (0 <= stdout_fd && is_open (stdout_fd))
    a220:	e3500000 	cmp	r0, #0
    fflush (stdout);
    a224:	e30b71e8 	movw	r7, #45544	@ 0xb1e8
    a228:	e3407002 	movt	r7, #2
  if (0 <= stdout_fd && is_open (stdout_fd))
    a22c:	ba000002 	blt	a23c <error_at_line+0x68>
    fflush (stdout);
    a230:	e5973000 	ldr	r3, [r7]
    a234:	e5930008 	ldr	r0, [r3, #8]
    a238:	eb003f72 	bl	1a008 <fflush_unlocked>

  flush_stdout ();
#ifdef _LIBC
  _IO_flockfile (stderr);
#endif
  if (error_print_progname)
    a23c:	e5943004 	ldr	r3, [r4, #4]
    a240:	e3530000 	cmp	r3, #0
    a244:	0a00001e 	beq	a2c4 <error_at_line+0xf0>
    (*error_print_progname) ();
    a248:	e12fff33 	blx	r3

#if _LIBC
  __fxprintf (NULL, file_name != NULL ? "%s:%u: " : " ",
              file_name, line_number);
#else
  fprintf (stderr, file_name != NULL ? "%s:%u: " : " ",
    a24c:	e5972000 	ldr	r2, [r7]
    a250:	e3550000 	cmp	r5, #0
    a254:	e3081c34 	movw	r1, #35892	@ 0x8c34
    a258:	e1a03006 	mov	r3, r6
    a25c:	e3401002 	movt	r1, #2
    a260:	e592000c 	ldr	r0, [r2, #12]
    a264:	e3082c3c 	movw	r2, #35900	@ 0x8c3c
    a268:	e3402002 	movt	r2, #2
    a26c:	01a01002 	moveq	r1, r2
    a270:	e1a02005 	mov	r2, r5
    a274:	eb00392a 	bl	18724 <fprintf>
           file_name, line_number);
#endif

  va_start (args, message);
    a278:	e28d302c 	add	r3, sp, #44	@ 0x2c
  error_tail (status, errnum, message, args);
    a27c:	e59d2028 	ldr	r2, [sp, #40]	@ 0x28
    a280:	e1a01009 	mov	r1, r9
    a284:	e1a00008 	mov	r0, r8
  va_start (args, message);
    a288:	e58d3004 	str	r3, [sp, #4]
  error_tail (status, errnum, message, args);
    a28c:	ebffff86 	bl	a0ac <error_tail>
  _IO_funlockfile (stderr);
# ifdef __libc_ptf_call
  __libc_ptf_call (pthread_setcancelstate, (state, NULL), 0);
# endif
#endif
}
    a290:	e28dd00c 	add	sp, sp, #12
    a294:	e8bd83f0 	pop	{r4, r5, r6, r7, r8, r9, pc}
          && (file_name == old_file_name
    a298:	e5940010 	ldr	r0, [r4, #16]
    a29c:	e1500002 	cmp	r0, r2
    a2a0:	0afffffa 	beq	a290 <error_at_line+0xbc>
                  && file_name != NULL
    a2a4:	e3520000 	cmp	r2, #0
    a2a8:	13500000 	cmpne	r0, #0
    a2ac:	0affffd6 	beq	a20c <error_at_line+0x38>
                  && strcmp (old_file_name, file_name) == 0)))
    a2b0:	e1a01002 	mov	r1, r2
    a2b4:	fa0055c9 	blx	1f9e0 <strcmp>
    a2b8:	e3500000 	cmp	r0, #0
    a2bc:	1affffd2 	bne	a20c <error_at_line+0x38>
    a2c0:	eafffff2 	b	a290 <error_at_line+0xbc>
      fprintf (stderr, "%s:", program_name);
    a2c4:	e5973000 	ldr	r3, [r7]
    a2c8:	e593400c 	ldr	r4, [r3, #12]
    a2cc:	eb000431 	bl	b398 <getprogname>
    a2d0:	e3081c40 	movw	r1, #35904	@ 0x8c40
    a2d4:	e1a02000 	mov	r2, r0
    a2d8:	e3401002 	movt	r1, #2
    a2dc:	e1a00004 	mov	r0, r4
    a2e0:	eb00390f 	bl	18724 <fprintf>
    a2e4:	eaffffd8 	b	a24c <error_at_line+0x78>

0000a2e8 <fdadvise>:
fdadvise (int fd, off_t offset, off_t len, fadvice_t advice)
{
#if HAVE_POSIX_FADVISE
  ignore_value (posix_fadvise (fd, offset, len, advice));
#endif
}
    a2e8:	e12fff1e 	bx	lr

0000a2ec <fadvise>:

void
fadvise (FILE *fp, fadvice_t advice)
{
  if (fp)
    a2ec:	e3500000 	cmp	r0, #0
    a2f0:	012fff1e 	bxeq	lr
    fdadvise (fileno (fp), 0, 0, advice);
    a2f4:	ea0037b6 	b	181d4 <fileno>

0000a2f8 <rpl_fclose>:

/* Override fclose() to call the overridden fflush() or close().  */

int
rpl_fclose (FILE *fp)
{
    a2f8:	e92d4010 	push	{r4, lr}
    a2fc:	e1a04000 	mov	r4, r0
  int saved_errno = 0;
  int fd;
  int result = 0;

  /* Don't change behavior on memstreams.  */
  fd = fileno (fp);
    a300:	eb0037b3 	bl	181d4 <fileno>
  if (fd < 0)
    a304:	e3500000 	cmp	r0, #0
    a308:	ba000006 	blt	a328 <rpl_fclose+0x30>
    return fclose_nothrow (fp);

  /* We only need to flush the file if it is not reading or if it is
     seekable.  This only guarantees the file position of input files
     if the fflush module is also in use.  */
  if ((!freading (fp) || lseek (fileno (fp), 0, SEEK_CUR) != -1)
    a30c:	e1d430bc 	ldrh	r3, [r4, #12]
    a310:	e3130004 	tst	r3, #4
    a314:	1a000006 	bne	a334 <rpl_fclose+0x3c>
      && fflush (fp))
    a318:	e1a00004 	mov	r0, r4
    a31c:	eb00001b 	bl	a390 <rpl_fflush>
    a320:	e3500000 	cmp	r0, #0
    a324:	1a00000d 	bne	a360 <rpl_fclose+0x68>
  result = fclose_nothrow (fp);
  if (result == 0)
    _gl_unregister_fd (fd);
# else
  /* No race condition here.  */
  result = fclose_nothrow (fp);
    a328:	e1a00004 	mov	r0, r4
      errno = saved_errno;
      result = EOF;
    }

  return result;
}
    a32c:	e8bd4010 	pop	{r4, lr}
  result = fclose_nothrow (fp);
    a330:	ea00367c 	b	17d28 <fclose>
  if ((!freading (fp) || lseek (fileno (fp), 0, SEEK_CUR) != -1)
    a334:	e1a00004 	mov	r0, r4
    a338:	eb0037a5 	bl	181d4 <fileno>
    a33c:	e3a02001 	mov	r2, #1
    a340:	e3a01000 	mov	r1, #0
    a344:	eb005535 	bl	1f820 <lseek>
    a348:	e3700001 	cmn	r0, #1
    a34c:	0afffff5 	beq	a328 <rpl_fclose+0x30>
      && fflush (fp))
    a350:	e1a00004 	mov	r0, r4
    a354:	eb00000d 	bl	a390 <rpl_fflush>
    a358:	e3500000 	cmp	r0, #0
    a35c:	0afffff1 	beq	a328 <rpl_fclose+0x30>
    saved_errno = errno;
    a360:	eb00452b 	bl	1b814 <__errno>
    a364:	e1a03000 	mov	r3, r0
  result = fclose_nothrow (fp);
    a368:	e1a00004 	mov	r0, r4
    saved_errno = errno;
    a36c:	e5934000 	ldr	r4, [r3]
  result = fclose_nothrow (fp);
    a370:	eb00366c 	bl	17d28 <fclose>
  if (saved_errno != 0)
    a374:	e3540000 	cmp	r4, #0
    a378:	08bd8010 	popeq	{r4, pc}
      errno = saved_errno;
    a37c:	eb004524 	bl	1b814 <__errno>
    a380:	e1a03000 	mov	r3, r0
      result = EOF;
    a384:	e3e00000 	mvn	r0, #0
      errno = saved_errno;
    a388:	e5834000 	str	r4, [r3]
}
    a38c:	e8bd8010 	pop	{r4, pc}

0000a390 <rpl_fflush>:

/* Flush all pending data on STREAM according to POSIX rules.  Both
   output and seekable input streams are supported.  */
int
rpl_fflush (FILE *stream)
{
    a390:	e92d4070 	push	{r4, r5, r6, lr}
     fflush in this case.

     We test ! freading (stream) here, rather than fwriting (stream), because
     what we need to know is whether the stream holds a "read buffer", and on
     mingw this is indicated by _IOREAD, regardless of _IOWRT.  */
  if (stream == NULL || ! freading (stream))
    a394:	e2504000 	subs	r4, r0, #0
    a398:	0a000002 	beq	a3a8 <rpl_fflush+0x18>
    a39c:	e1d430bc 	ldrh	r3, [r4, #12]
    a3a0:	e3130004 	tst	r3, #4
    a3a4:	1a000002 	bne	a3b4 <rpl_fflush+0x24>
    return fflush (stream);
    a3a8:	e1a00004 	mov	r0, r4
    return 0;

# endif
  }
#endif
}
    a3ac:	e8bd4070 	pop	{r4, r5, r6, lr}
    return fflush (stream);
    a3b0:	ea003735 	b	1808c <fflush>
    off_t pos = ftello (stream);
    a3b4:	eb003efa 	bl	19fa4 <ftello>
    if (pos == -1)
    a3b8:	e3700001 	cmn	r0, #1
    off_t pos = ftello (stream);
    a3bc:	e1a05000 	mov	r5, r0
    if (pos == -1)
    a3c0:	0a00001a 	beq	a430 <rpl_fflush+0xa0>
  if (HASUB (fp))
    a3c4:	e5943030 	ldr	r3, [r4, #48]	@ 0x30
    a3c8:	e3530000 	cmp	r3, #0
    a3cc:	0a000005 	beq	a3e8 <rpl_fflush+0x58>
      fp_->_p += fp_->_r;
    a3d0:	e5943000 	ldr	r3, [r4]
      fp_->_r = 0;
    a3d4:	e3a01000 	mov	r1, #0
      fp_->_p += fp_->_r;
    a3d8:	e5942004 	ldr	r2, [r4, #4]
      fp_->_r = 0;
    a3dc:	e5841004 	str	r1, [r4, #4]
      fp_->_p += fp_->_r;
    a3e0:	e0833002 	add	r3, r3, r2
    a3e4:	e5843000 	str	r3, [r4]
      int result = fpurge (stream);
    a3e8:	e1a00004 	mov	r0, r4
    a3ec:	eb000015 	bl	a448 <rpl_fpurge>
      if (result != 0)
    a3f0:	e3500000 	cmp	r0, #0
    a3f4:	18bd8070 	popne	{r4, r5, r6, pc}
  int saved_flags = fp_->_flags & (__SOPT | __SNPT);
    a3f8:	e1d460fc 	ldrsh	r6, [r4, #12]
      int result = fseeko (stream, pos, SEEK_SET);
    a3fc:	e1a02000 	mov	r2, r0
    a400:	e1a01005 	mov	r1, r5
    a404:	e1a00004 	mov	r0, r4
  fp_->_flags = (fp_->_flags & ~__SOPT) | __SNPT;
    a408:	e3c63b03 	bic	r3, r6, #3072	@ 0xc00
  fp_->_flags = (fp_->_flags & ~(__SOPT | __SNPT)) | saved_flags;
    a40c:	e2066b03 	and	r6, r6, #3072	@ 0xc00
  fp_->_flags = (fp_->_flags & ~__SOPT) | __SNPT;
    a410:	e3833b02 	orr	r3, r3, #2048	@ 0x800
    a414:	e1c430bc 	strh	r3, [r4, #12]
      int result = fseeko (stream, pos, SEEK_SET);
    a418:	eb000028 	bl	a4c0 <rpl_fseeko>
  fp_->_flags = (fp_->_flags & ~(__SOPT | __SNPT)) | saved_flags;
    a41c:	e1d430bc 	ldrh	r3, [r4, #12]
    a420:	e3c33b03 	bic	r3, r3, #3072	@ 0xc00
    a424:	e1833006 	orr	r3, r3, r6
    a428:	e1c430bc 	strh	r3, [r4, #12]
}
    a42c:	e8bd8070 	pop	{r4, r5, r6, pc}
        errno = EBADF;
    a430:	eb0044f7 	bl	1b814 <__errno>
    a434:	e3a02009 	mov	r2, #9
    a438:	e1a03000 	mov	r3, r0
    a43c:	e5832000 	str	r2, [r3]
        return EOF;
    a440:	e1a00005 	mov	r0, r5
    a444:	e8bd8070 	pop	{r4, r5, r6, pc}

0000a448 <rpl_fpurge>:

#include "stdio-impl.h"

int
fpurge (FILE *fp)
{
    a448:	e92d4010 	push	{r4, lr}
#if HAVE___FPURGE                   /* glibc >= 2.2, Haiku, Solaris >= 7, UnixWare >= 7.1.4.MP4, Cygwin >= 1.7.10, Android API >= 23, musl libc */

  __fpurge (fp);
    a44c:	eb003f5c 	bl	1a1c4 <__fpurge>
# else
#  error "Please port gnulib fpurge.c to your platform! Look at the definitions of fflush, setvbuf and ungetc on your system, then report this to bug-gnulib."
# endif

#endif
}
    a450:	e3a00000 	mov	r0, #0
    a454:	e8bd8010 	pop	{r4, pc}

0000a458 <rpl_free>:
# include <errno.h>

void
rpl_free (void *p)
# undef free
{
    a458:	e92d4010 	push	{r4, lr}
    a45c:	e24dd008 	sub	sp, sp, #8
    a460:	e1a04000 	mov	r4, r0
     <https://gcc.gnu.org/bugzilla/show_bug.cgi?id=98396>
     would optimize away the assignments in the code below, when link-time
     optimization (LTO) is enabled.  Make the code more complicated, so that
     GCC does not grok how to optimize it.  */
  int err[2];
  err[0] = errno;
    a464:	eb0044ea 	bl	1b814 <__errno>
    a468:	e5903000 	ldr	r3, [r0]
    a46c:	e58d3000 	str	r3, [sp]
  err[1] = errno;
    a470:	eb0044e7 	bl	1b814 <__errno>
    a474:	e5903000 	ldr	r3, [r0]
    a478:	e58d3004 	str	r3, [sp, #4]
  errno = 0;
    a47c:	eb0044e4 	bl	1b814 <__errno>
    a480:	e3a02000 	mov	r2, #0
    a484:	e1a03000 	mov	r3, r0
    a488:	e5832000 	str	r2, [r3]
  free (p);
    a48c:	e1a00004 	mov	r0, r4
    a490:	eb005063 	bl	1e624 <free>
  errno = err[errno == 0];
    a494:	eb0044de 	bl	1b814 <__errno>
    a498:	e5904000 	ldr	r4, [r0]
    a49c:	eb0044dc 	bl	1b814 <__errno>
    a4a0:	e28d3008 	add	r3, sp, #8
    a4a4:	e16f4f14 	clz	r4, r4
    a4a8:	e1a042a4 	lsr	r4, r4, #5
    a4ac:	e0834104 	add	r4, r3, r4, lsl #2
    a4b0:	e5143008 	ldr	r3, [r4, #-8]
    a4b4:	e5803000 	str	r3, [r0]
# else
  int err = errno;
  free (p);
  errno = err;
# endif
}
    a4b8:	e28dd008 	add	sp, sp, #8
    a4bc:	e8bd8010 	pop	{r4, pc}

0000a4c0 <rpl_fseeko>:
#  define fseeko _fseeki64
# else /* mingw before msvcrt8.0 */
#  define fseeko fseeko64
# endif
#endif
{
    a4c0:	e92d4030 	push	{r4, r5, lr}
    a4c4:	e1a04000 	mov	r4, r0
      fp->_flags |= __SL64;
      fp->_seek64 = tmp->_seek64;
      fclose (tmp);
    }
# endif
  if (fp_->_p == fp_->_bf._base
    a4c8:	e5943010 	ldr	r3, [r4, #16]
{
    a4cc:	e24dd00c 	sub	sp, sp, #12
  if (fp_->_p == fp_->_bf._base
    a4d0:	e5900000 	ldr	r0, [r0]
    a4d4:	e1500003 	cmp	r0, r3
    a4d8:	0a000003 	beq	a4ec <rpl_fseeko+0x2c>
      fp->__offset = pos;
      fp->__eof = 0;
#endif
      return 0;
    }
  return fseeko (fp, offset, whence);
    a4dc:	e1a00004 	mov	r0, r4
}
    a4e0:	e28dd00c 	add	sp, sp, #12
    a4e4:	e8bd4030 	pop	{r4, r5, lr}
  return fseeko (fp, offset, whence);
    a4e8:	ea003e66 	b	19e88 <fseeko>
      && fp_->_r == 0
    a4ec:	e5945004 	ldr	r5, [r4, #4]
    a4f0:	e3550000 	cmp	r5, #0
    a4f4:	1afffff8 	bne	a4dc <rpl_fseeko+0x1c>
                     : 0)
    a4f8:	e1d430bc 	ldrh	r3, [r4, #12]
      && fp_->_w == ((fp_->_flags & (__SLBF | __SNBF | __SRD)) == 0 /* fully buffered and not currently reading? */
    a4fc:	e5940008 	ldr	r0, [r4, #8]
                     : 0)
    a500:	e3130007 	tst	r3, #7
    a504:	05943014 	ldreq	r3, [r4, #20]
    a508:	11a03005 	movne	r3, r5
      && fp_->_w == ((fp_->_flags & (__SLBF | __SNBF | __SRD)) == 0 /* fully buffered and not currently reading? */
    a50c:	e1500003 	cmp	r0, r3
    a510:	1afffff1 	bne	a4dc <rpl_fseeko+0x1c>
      && fp_ub._base == NULL)
    a514:	e5943030 	ldr	r3, [r4, #48]	@ 0x30
    a518:	e3530000 	cmp	r3, #0
    a51c:	1affffee 	bne	a4dc <rpl_fseeko+0x1c>
      off_t pos = lseek (fileno (fp), offset, whence);
    a520:	e1a00004 	mov	r0, r4
    a524:	e88d0006 	stm	sp, {r1, r2}
    a528:	eb003729 	bl	181d4 <fileno>
    a52c:	e89d0006 	ldm	sp, {r1, r2}
    a530:	eb0054ba 	bl	1f820 <lseek>
          fp_->_flags &= ~__SOFF;
    a534:	e1d430bc 	ldrh	r3, [r4, #12]
      if (pos == -1)
    a538:	e3700001 	cmn	r0, #1
          return -1;
    a53c:	01a05000 	moveq	r5, r0
        fp_->_offset = u.f;
    a540:	15840050 	strne	r0, [r4, #80]	@ 0x50
}
    a544:	e1a00005 	mov	r0, r5
      fp_->_flags &= ~__SEOF;
    a548:	13c33020 	bicne	r3, r3, #32
          fp_->_flags &= ~__SOFF;
    a54c:	03c33a01 	biceq	r3, r3, #4096	@ 0x1000
      fp_->_flags &= ~__SEOF;
    a550:	13833a01 	orrne	r3, r3, #4096	@ 0x1000
    a554:	e1c430bc 	strh	r3, [r4, #12]
}
    a558:	e28dd00c 	add	sp, sp, #12
    a55c:	e8bd8030 	pop	{r4, r5, pc}

0000a560 <getdelim>:
getdelim (char **lineptr, size_t *n, int delimiter, FILE *fp)
{
  ssize_t result;
  size_t cur_len = 0;

  if (lineptr == NULL || n == NULL || fp == NULL)
    a560:	e3530000 	cmp	r3, #0
    a564:	13510000 	cmpne	r1, #0
{
    a568:	e92d4ff8 	push	{r3, r4, r5, r6, r7, r8, r9, sl, fp, lr}
    a56c:	e1a09002 	mov	r9, r2
  if (lineptr == NULL || n == NULL || fp == NULL)
    a570:	03a02001 	moveq	r2, #1
    a574:	13a02000 	movne	r2, #0
    a578:	e3500000 	cmp	r0, #0
    a57c:	03822001 	orreq	r2, r2, #1
    a580:	e3520000 	cmp	r2, #0
    a584:	1a000041 	bne	a690 <getdelim+0x130>
    a588:	e1a06000 	mov	r6, r0
      return -1;
    }

  flockfile (fp);

  if (*lineptr == NULL || *n == 0)
    a58c:	e5900000 	ldr	r0, [r0]
    a590:	e1a07001 	mov	r7, r1
    a594:	e1a08003 	mov	r8, r3
    a598:	e3500000 	cmp	r0, #0
    a59c:	0a000028 	beq	a644 <getdelim+0xe4>
    a5a0:	e5913000 	ldr	r3, [r1]
    a5a4:	e3530000 	cmp	r3, #0
    a5a8:	0a000025 	beq	a644 <getdelim+0xe4>
{
    a5ac:	e3a0b000 	mov	fp, #0
    a5b0:	ea000004 	b	a5c8 <getdelim+0x68>
              result = -1;
              errno = EOVERFLOW;
              goto unlock_return;
            }

          new_lineptr = (char *) realloc (*lineptr, needed);
    a5b4:	e5960000 	ldr	r0, [r6]
        }

      (*lineptr)[cur_len] = i;
      cur_len++;

      if (i == delimiter)
    a5b8:	e1550009 	cmp	r5, r9
      (*lineptr)[cur_len] = i;
    a5bc:	e7c0500b 	strb	r5, [r0, fp]
      cur_len++;
    a5c0:	e1a0b00a 	mov	fp, sl
      if (i == delimiter)
    a5c4:	0a000019 	beq	a630 <getdelim+0xd0>
      i = getc_maybe_unlocked (fp);
    a5c8:	e1a00008 	mov	r0, r8
      if (cur_len + 1 >= *n)
    a5cc:	e28ba001 	add	sl, fp, #1
      i = getc_maybe_unlocked (fp);
    a5d0:	eb003a4a 	bl	18f00 <getc_unlocked>
      if (i == EOF)
    a5d4:	e3700001 	cmn	r0, #1
      i = getc_maybe_unlocked (fp);
    a5d8:	e1a05000 	mov	r5, r0
      if (i == EOF)
    a5dc:	0a00001f 	beq	a660 <getdelim+0x100>
      if (cur_len + 1 >= *n)
    a5e0:	e5974000 	ldr	r4, [r7]
    a5e4:	e15a0004 	cmp	sl, r4
          size_t needed = 2 * *n + 1;   /* Be generous. */
    a5e8:	e1a04084 	lsl	r4, r4, #1
      if (cur_len + 1 >= *n)
    a5ec:	3afffff0 	bcc	a5b4 <getdelim+0x54>
          size_t needed = 2 * *n + 1;   /* Be generous. */
    a5f0:	e2844001 	add	r4, r4, #1
          if (needed_max < needed)
    a5f4:	e3540102 	cmp	r4, #-2147483648	@ 0x80000000
    a5f8:	23a04102 	movcs	r4, #-2147483648	@ 0x80000000
          if (cur_len + 1 >= needed)
    a5fc:	e154000a 	cmp	r4, sl
          new_lineptr = (char *) realloc (*lineptr, needed);
    a600:	e1a01004 	mov	r1, r4
          if (cur_len + 1 >= needed)
    a604:	9a00001c 	bls	a67c <getdelim+0x11c>
          new_lineptr = (char *) realloc (*lineptr, needed);
    a608:	e5960000 	ldr	r0, [r6]
    a60c:	eb00100c 	bl	e644 <rpl_realloc>
          if (new_lineptr == NULL)
    a610:	e3500000 	cmp	r0, #0
    a614:	0a00001b 	beq	a688 <getdelim+0x128>
      if (i == delimiter)
    a618:	e1550009 	cmp	r5, r9
          *lineptr = new_lineptr;
    a61c:	e5860000 	str	r0, [r6]
          *n = needed;
    a620:	e5874000 	str	r4, [r7]
      (*lineptr)[cur_len] = i;
    a624:	e7c0500b 	strb	r5, [r0, fp]
      cur_len++;
    a628:	e1a0b00a 	mov	fp, sl
      if (i == delimiter)
    a62c:	1affffe5 	bne	a5c8 <getdelim+0x68>
        break;
    }
  (*lineptr)[cur_len] = '\0';
    a630:	e5963000 	ldr	r3, [r6]
    a634:	e3a02000 	mov	r2, #0
  result = cur_len ? cur_len : result;
    a638:	e1a0000b 	mov	r0, fp
  (*lineptr)[cur_len] = '\0';
    a63c:	e7c3200a 	strb	r2, [r3, sl]

 unlock_return:
  funlockfile (fp); /* doesn't set errno */

  return result;
}
    a640:	e8bd8ff8 	pop	{r3, r4, r5, r6, r7, r8, r9, sl, fp, pc}
      *n = 120;
    a644:	e3a01078 	mov	r1, #120	@ 0x78
    a648:	e5871000 	str	r1, [r7]
      new_lineptr = (char *) realloc (*lineptr, *n);
    a64c:	eb000ffc 	bl	e644 <rpl_realloc>
      if (new_lineptr == NULL)
    a650:	e3500000 	cmp	r0, #0
    a654:	0a00000b 	beq	a688 <getdelim+0x128>
      *lineptr = new_lineptr;
    a658:	e5860000 	str	r0, [r6]
    a65c:	eaffffd2 	b	a5ac <getdelim+0x4c>
  (*lineptr)[cur_len] = '\0';
    a660:	e5963000 	ldr	r3, [r6]
  result = cur_len ? cur_len : result;
    a664:	e35b0000 	cmp	fp, #0
  (*lineptr)[cur_len] = '\0';
    a668:	e3a02000 	mov	r2, #0
    a66c:	e7c3200b 	strb	r2, [r3, fp]
  result = cur_len ? cur_len : result;
    a670:	0a000004 	beq	a688 <getdelim+0x128>
    a674:	e1a0000b 	mov	r0, fp
}
    a678:	e8bd8ff8 	pop	{r3, r4, r5, r6, r7, r8, r9, sl, fp, pc}
              errno = EOVERFLOW;
    a67c:	eb004464 	bl	1b814 <__errno>
    a680:	e3a0308b 	mov	r3, #139	@ 0x8b
    a684:	e5803000 	str	r3, [r0]
      return -1;
    a688:	e3e00000 	mvn	r0, #0
    a68c:	e8bd8ff8 	pop	{r3, r4, r5, r6, r7, r8, r9, sl, fp, pc}
      errno = EINVAL;
    a690:	eb00445f 	bl	1b814 <__errno>
    a694:	e3a03016 	mov	r3, #22
    a698:	e5803000 	str	r3, [r0]
      return -1;
    a69c:	eafffff9 	b	a688 <getdelim+0x128>

0000a6a0 <exchange>:
   'first_nonopt' and 'last_nonopt' are relocated so that they describe
   the new indices of the non-options in ARGV after they are moved.  */

static void
exchange (char **argv, struct _getopt_data *d)
{
    a6a0:	e92d47f0 	push	{r4, r5, r6, r7, r8, r9, sl, lr}
    a6a4:	e1a06001 	mov	r6, r1
  int bottom = d->__first_nonopt;
    a6a8:	e591801c 	ldr	r8, [r1, #28]
  int middle = d->__last_nonopt;
  int top = d->optind;
    a6ac:	e5967000 	ldr	r7, [r6]
  int middle = d->__last_nonopt;
    a6b0:	e5911020 	ldr	r1, [r1, #32]
  /* Exchange the shorter segment with the far end of the longer segment.
     That puts the shorter segment into the right place.
     It leaves the longer segment in the right place overall,
     but it consists of two parts that need to be swapped next.  */

  while (top > middle && middle > bottom)
    a6b4:	e1510007 	cmp	r1, r7
    a6b8:	b1580001 	cmplt	r8, r1
    a6bc:	aa00001b 	bge	a730 <exchange+0x90>
    a6c0:	e1a05000 	mov	r5, r0
    a6c4:	e0800101 	add	r0, r0, r1, lsl #2
  int top = d->optind;
    a6c8:	e1a04007 	mov	r4, r7
  int bottom = d->__first_nonopt;
    a6cc:	e1a02008 	mov	r2, r8
    {
      if (top - middle > middle - bottom)
    a6d0:	e0443001 	sub	r3, r4, r1
    a6d4:	e041c002 	sub	ip, r1, r2
    a6d8:	e153000c 	cmp	r3, ip
    a6dc:	ca000018 	bgt	a744 <exchange+0xa4>
	  /* Top segment is the short one.  */
	  int len = top - middle;
	  int i;

	  /* Swap it with the bottom part of the bottom segment.  */
	  for (i = 0; i < len; i++)
    a6e0:	e3530000 	cmp	r3, #0
    a6e4:	e083a002 	add	sl, r3, r2
    a6e8:	da000008 	ble	a710 <exchange+0x70>
    a6ec:	e085910a 	add	r9, r5, sl, lsl #2
    a6f0:	e0853102 	add	r3, r5, r2, lsl #2
    a6f4:	e1a02000 	mov	r2, r0
	    {
	      tem = argv[bottom + i];
	      argv[bottom + i] = argv[middle + i];
    a6f8:	e592e000 	ldr	lr, [r2]
	      tem = argv[bottom + i];
    a6fc:	e593c000 	ldr	ip, [r3]
	      argv[bottom + i] = argv[middle + i];
    a700:	e483e004 	str	lr, [r3], #4
	  for (i = 0; i < len; i++)
    a704:	e1530009 	cmp	r3, r9
	      argv[middle + i] = tem;
    a708:	e482c004 	str	ip, [r2], #4
	  for (i = 0; i < len; i++)
    a70c:	1afffff9 	bne	a6f8 <exchange+0x58>
	    }
	  /* Exclude the moved top segment from further swapping.  */
	  bottom += len;
    a710:	e1a0200a 	mov	r2, sl
  while (top > middle && middle > bottom)
    a714:	e1540001 	cmp	r4, r1
    a718:	d3a03000 	movle	r3, #0
    a71c:	c3a03001 	movgt	r3, #1
    a720:	e1520001 	cmp	r2, r1
    a724:	a3a03000 	movge	r3, #0
    a728:	e3530000 	cmp	r3, #0
    a72c:	1affffe7 	bne	a6d0 <exchange+0x30>
	}
    }

  /* Update records for the slots the non-options now occupy.  */

  d->__first_nonopt += (d->optind - d->__last_nonopt);
    a730:	e0471001 	sub	r1, r7, r1
  d->__last_nonopt = d->optind;
    a734:	e5867020 	str	r7, [r6, #32]
  d->__first_nonopt += (d->optind - d->__last_nonopt);
    a738:	e0811008 	add	r1, r1, r8
    a73c:	e586101c 	str	r1, [r6, #28]
}
    a740:	e8bd87f0 	pop	{r4, r5, r6, r7, r8, r9, sl, pc}
	      argv[bottom + i] = argv[top - (middle - bottom) + i];
    a744:	e044400c 	sub	r4, r4, ip
    a748:	e0853102 	add	r3, r5, r2, lsl #2
    a74c:	e085c104 	add	ip, r5, r4, lsl #2
    a750:	e59c9000 	ldr	r9, [ip]
	      tem = argv[bottom + i];
    a754:	e593e000 	ldr	lr, [r3]
	      argv[bottom + i] = argv[top - (middle - bottom) + i];
    a758:	e4839004 	str	r9, [r3], #4
	  for (i = 0; i < len; i++)
    a75c:	e1500003 	cmp	r0, r3
	      argv[top - (middle - bottom) + i] = tem;
    a760:	e48ce004 	str	lr, [ip], #4
	  for (i = 0; i < len; i++)
    a764:	1afffff9 	bne	a750 <exchange+0xb0>
    a768:	eaffffe9 	b	a714 <exchange+0x74>

0000a76c <process_long_option>:
static int
process_long_option (int argc, char **argv, const char *optstring,
		     const struct option *longopts, int *longind,
		     int long_only, struct _getopt_data *d,
		     int print_errors, const char *prefix)
{
    a76c:	e92d4ff0 	push	{r4, r5, r6, r7, r8, r9, sl, fp, lr}
    a770:	e24dd02c 	sub	sp, sp, #44	@ 0x2c
    a774:	e59d7058 	ldr	r7, [sp, #88]	@ 0x58
    a778:	e58d0018 	str	r0, [sp, #24]
  const struct option *p;
  const struct option *pfound = NULL;
  int n_options;
  int option_index;

  for (nameend = d->__nextchar; *nameend && *nameend != '='; nameend++)
    a77c:	e5979014 	ldr	r9, [r7, #20]
{
    a780:	e58d1014 	str	r1, [sp, #20]
    a784:	e58d201c 	str	r2, [sp, #28]
  for (nameend = d->__nextchar; *nameend && *nameend != '='; nameend++)
    a788:	e5d95000 	ldrb	r5, [r9]
    a78c:	e1a0b009 	mov	fp, r9
{
    a790:	e58d300c 	str	r3, [sp, #12]
  for (nameend = d->__nextchar; *nameend && *nameend != '='; nameend++)
    a794:	e3550000 	cmp	r5, #0
    a798:	1355003d 	cmpne	r5, #61	@ 0x3d
    a79c:	13a05001 	movne	r5, #1
    a7a0:	03a05000 	moveq	r5, #0
    a7a4:	0a000004 	beq	a7bc <process_long_option+0x50>
    a7a8:	e5fb3001 	ldrb	r3, [fp, #1]!
    a7ac:	e3530000 	cmp	r3, #0
    a7b0:	1353003d 	cmpne	r3, #61	@ 0x3d
    a7b4:	1afffffb 	bne	a7a8 <process_long_option+0x3c>
    /* Do nothing.  */ ;
  namelen = nameend - d->__nextchar;
    a7b8:	e04b5009 	sub	r5, fp, r9

  /* First look for an exact match, counting the options as a side
     effect.  */
  for (p = longopts, n_options = 0; p->name; p++, n_options++)
    a7bc:	e59d300c 	ldr	r3, [sp, #12]
    a7c0:	e5930000 	ldr	r0, [r3]
    a7c4:	e3500000 	cmp	r0, #0
    a7c8:	0a000077 	beq	a9ac <process_long_option+0x240>
    a7cc:	e59d400c 	ldr	r4, [sp, #12]
    a7d0:	e1a0a000 	mov	sl, r0
    a7d4:	e58d7058 	str	r7, [sp, #88]	@ 0x58
    a7d8:	e3a06000 	mov	r6, #0
    a7dc:	e1a07000 	mov	r7, r0
    a7e0:	e1a08004 	mov	r8, r4
    if (!strncmp (p->name, d->__nextchar, namelen)
    a7e4:	e1a02005 	mov	r2, r5
    a7e8:	e1a01009 	mov	r1, r9
    a7ec:	e1a00007 	mov	r0, r7
    a7f0:	eb00404f 	bl	1a934 <strncmp>
    a7f4:	e1a02000 	mov	r2, r0
	&& namelen == strlen (p->name))
    a7f8:	e1a00007 	mov	r0, r7
    if (!strncmp (p->name, d->__nextchar, namelen)
    a7fc:	e3520000 	cmp	r2, #0
    a800:	1a000002 	bne	a810 <process_long_option+0xa4>
	&& namelen == strlen (p->name))
    a804:	fa00571d 	blx	20480 <strlen>
    a808:	e1500005 	cmp	r0, r5
    a80c:	0a000027 	beq	a8b0 <process_long_option+0x144>
  for (p = longopts, n_options = 0; p->name; p++, n_options++)
    a810:	e5b47010 	ldr	r7, [r4, #16]!
    a814:	e2866001 	add	r6, r6, #1
    a818:	e3570000 	cmp	r7, #0
    a81c:	1afffff0 	bne	a7e4 <process_long_option+0x78>
    a820:	e59d7058 	ldr	r7, [sp, #88]	@ 0x58
    a824:	e1a0000a 	mov	r0, sl
    a828:	e3a03000 	mov	r3, #0
			    memset (ambig_set, 0, n_options);
			    ambig_set[indfound] = 1;
			  }
		      }
		    if (ambig_set)
		      ambig_set[option_index] = 1;
    a82c:	e1a01009 	mov	r1, r9
  for (p = longopts, n_options = 0; p->name; p++, n_options++)
    a830:	e1a0a003 	mov	sl, r3
    a834:	e1a04003 	mov	r4, r3
		      ambig_set[option_index] = 1;
    a838:	e1a09003 	mov	r9, r3
  for (p = longopts, n_options = 0; p->name; p++, n_options++)
    a83c:	e3e02000 	mvn	r2, #0
    a840:	e1cd22f0 	strd	r2, [sp, #32]
    a844:	e58d3010 	str	r3, [sp, #16]
	if (!strncmp (p->name, d->__nextchar, namelen))
    a848:	e1a02005 	mov	r2, r5
    a84c:	eb004038 	bl	1a934 <strncmp>
    a850:	e3500000 	cmp	r0, #0
    a854:	1a00000f 	bne	a898 <process_long_option+0x12c>
	    if (pfound == NULL)
    a858:	e3540000 	cmp	r4, #0
    a85c:	0a00003e 	beq	a95c <process_long_option+0x1f0>
	    else if (long_only
    a860:	e59d3054 	ldr	r3, [sp, #84]	@ 0x54
    a864:	e3530000 	cmp	r3, #0
    a868:	0a00002e 	beq	a928 <process_long_option+0x1bc>
		if (!ambig_fallback)
    a86c:	e3590000 	cmp	r9, #0
    a870:	1a000008 	bne	a898 <process_long_option+0x12c>
		    if (!print_errors)
    a874:	e59d305c 	ldr	r3, [sp, #92]	@ 0x5c
    a878:	e3530000 	cmp	r3, #0
		    if (ambig_set)
    a87c:	e59d3010 	ldr	r3, [sp, #16]
		    if (!print_errors)
    a880:	0a000045 	beq	a99c <process_long_option+0x230>
		    else if (!ambig_set)
    a884:	e3530000 	cmp	r3, #0
    a888:	0a000090 	beq	aad0 <process_long_option+0x364>
		      ambig_set[option_index] = 1;
    a88c:	e59d3010 	ldr	r3, [sp, #16]
    a890:	e3a02001 	mov	r2, #1
    a894:	e7c3200a 	strb	r2, [r3, sl]
      for (p = longopts, option_index = 0; p->name; p++, option_index++)
    a898:	e5b80010 	ldr	r0, [r8, #16]!
    a89c:	e28aa001 	add	sl, sl, #1
    a8a0:	e3500000 	cmp	r0, #0
    a8a4:	0a000032 	beq	a974 <process_long_option+0x208>
      if (ambig_set || ambig_fallback)
	{
	  if (print_errors)
	    {
	      if (ambig_fallback)
		fprintf (stderr, _("%s: option '%s%s' is ambiguous\n"),
    a8a8:	e5971014 	ldr	r1, [r7, #20]
    a8ac:	eaffffe5 	b	a848 <process_long_option+0xdc>
  if (pfound == NULL)
    a8b0:	e3540000 	cmp	r4, #0
    a8b4:	e59d7058 	ldr	r7, [sp, #88]	@ 0x58
    a8b8:	e1a0000a 	mov	r0, sl
    a8bc:	0affffd9 	beq	a828 <process_long_option+0xbc>
      /* Otherwise interpret it as a short option.  */
      return -1;
    }

  /* We have found a matching long option.  Consume it.  */
  d->optind++;
    a8c0:	e5973000 	ldr	r3, [r7]
  d->__nextchar = NULL;
    a8c4:	e3a01000 	mov	r1, #0
    a8c8:	e5871014 	str	r1, [r7, #20]
  if (*nameend)
    {
      /* Don't test has_arg with >, because some C compilers don't
	 allow it to be used on enums.  */
      if (pfound->has_arg)
    a8cc:	e5940004 	ldr	r0, [r4, #4]
  d->optind++;
    a8d0:	e2831001 	add	r1, r3, #1
    a8d4:	e5871000 	str	r1, [r7]
  if (*nameend)
    a8d8:	e5dbc000 	ldrb	ip, [fp]
    a8dc:	e35c0000 	cmp	ip, #0
    a8e0:	1a00000b 	bne	a914 <process_long_option+0x1a8>

	  d->optopt = pfound->val;
	  return '?';
	}
    }
  else if (pfound->has_arg == 1)
    a8e4:	e3500001 	cmp	r0, #1
    a8e8:	0a00004a 	beq	aa18 <process_long_option+0x2ac>
	  d->optopt = pfound->val;
	  return optstring[0] == ':' ? ':' : '?';
	}
    }

  if (longind != NULL)
    a8ec:	e59d3050 	ldr	r3, [sp, #80]	@ 0x50
    a8f0:	e3530000 	cmp	r3, #0
    *longind = option_index;
    a8f4:	15836000 	strne	r6, [r3]
  if (pfound->flag)
    a8f8:	e5943008 	ldr	r3, [r4, #8]
    {
      *(pfound->flag) = pfound->val;
    a8fc:	e594000c 	ldr	r0, [r4, #12]
  if (pfound->flag)
    a900:	e3530000 	cmp	r3, #0
      *(pfound->flag) = pfound->val;
    a904:	15830000 	strne	r0, [r3]
      return 0;
    a908:	13a00000 	movne	r0, #0
    }
  return pfound->val;
}
    a90c:	e28dd02c 	add	sp, sp, #44	@ 0x2c
    a910:	e8bd8ff0 	pop	{r4, r5, r6, r7, r8, r9, sl, fp, pc}
      if (pfound->has_arg)
    a914:	e3500000 	cmp	r0, #0
    a918:	0a000047 	beq	aa3c <process_long_option+0x2d0>
	d->optarg = nameend + 1;
    a91c:	e28b2001 	add	r2, fp, #1
    a920:	e587200c 	str	r2, [r7, #12]
    a924:	eafffff0 	b	a8ec <process_long_option+0x180>
		     || pfound->has_arg != p->has_arg
    a928:	e5941004 	ldr	r1, [r4, #4]
    a92c:	e5982004 	ldr	r2, [r8, #4]
    a930:	e1510002 	cmp	r1, r2
    a934:	1affffcc 	bne	a86c <process_long_option+0x100>
		     || pfound->flag != p->flag
    a938:	e5941008 	ldr	r1, [r4, #8]
    a93c:	e5982008 	ldr	r2, [r8, #8]
    a940:	e1510002 	cmp	r1, r2
    a944:	1affffc8 	bne	a86c <process_long_option+0x100>
		     || pfound->val != p->val)
    a948:	e594100c 	ldr	r1, [r4, #12]
    a94c:	e598200c 	ldr	r2, [r8, #12]
    a950:	e1510002 	cmp	r1, r2
    a954:	1affffc4 	bne	a86c <process_long_option+0x100>
    a958:	eaffffce 	b	a898 <process_long_option+0x12c>
		pfound = p;
    a95c:	e1a04008 	mov	r4, r8
      for (p = longopts, option_index = 0; p->name; p++, option_index++)
    a960:	e5b80010 	ldr	r0, [r8, #16]!
		indfound = option_index;
    a964:	e58da020 	str	sl, [sp, #32]
      for (p = longopts, option_index = 0; p->name; p++, option_index++)
    a968:	e28aa001 	add	sl, sl, #1
    a96c:	e3500000 	cmp	r0, #0
    a970:	1affffcc 	bne	a8a8 <process_long_option+0x13c>
      if (ambig_set || ambig_fallback)
    a974:	e59d2010 	ldr	r2, [sp, #16]
    a978:	e1a03009 	mov	r3, r9
    a97c:	e3520000 	cmp	r2, #0
    a980:	13833001 	orrne	r3, r3, #1
    a984:	e3130001 	tst	r3, #1
    a988:	1a000031 	bne	aa54 <process_long_option+0x2e8>
  if (pfound == NULL)
    a98c:	e3540000 	cmp	r4, #0
    a990:	0a000005 	beq	a9ac <process_long_option+0x240>
    a994:	e59d6020 	ldr	r6, [sp, #32]
    a998:	eaffffc8 	b	a8c0 <process_long_option+0x154>
		    if (ambig_set)
    a99c:	e3530000 	cmp	r3, #0
    a9a0:	e3a09001 	mov	r9, #1
    a9a4:	0affffbb 	beq	a898 <process_long_option+0x12c>
    a9a8:	eaffffb7 	b	a88c <process_long_option+0x120>
      if (!long_only || argv[d->optind][1] == '-'
    a9ac:	e59d3054 	ldr	r3, [sp, #84]	@ 0x54
    a9b0:	e3530000 	cmp	r3, #0
    a9b4:	0a00000c 	beq	a9ec <process_long_option+0x280>
    a9b8:	e5973000 	ldr	r3, [r7]
    a9bc:	e59d2014 	ldr	r2, [sp, #20]
    a9c0:	e7923103 	ldr	r3, [r2, r3, lsl #2]
    a9c4:	e5d33001 	ldrb	r3, [r3, #1]
    a9c8:	e353002d 	cmp	r3, #45	@ 0x2d
    a9cc:	0a000006 	beq	a9ec <process_long_option+0x280>
	  || strchr (optstring, *d->__nextchar) == NULL)
    a9d0:	e5973014 	ldr	r3, [r7, #20]
    a9d4:	e59d001c 	ldr	r0, [sp, #28]
    a9d8:	e5d31000 	ldrb	r1, [r3]
    a9dc:	eb003f71 	bl	1a7a8 <strchr>
    a9e0:	e3500000 	cmp	r0, #0
      return -1;
    a9e4:	13e00000 	mvnne	r0, #0
    a9e8:	1affffc7 	bne	a90c <process_long_option+0x1a0>
	  if (print_errors)
    a9ec:	e59d305c 	ldr	r3, [sp, #92]	@ 0x5c
    a9f0:	e3530000 	cmp	r3, #0
    a9f4:	1a000043 	bne	ab08 <process_long_option+0x39c>
	  d->optind++;
    a9f8:	e5973000 	ldr	r3, [r7]
	  d->__nextchar = NULL;
    a9fc:	e3a02000 	mov	r2, #0
    aa00:	e5872014 	str	r2, [r7, #20]
	  d->optopt = 0;
    aa04:	e5872008 	str	r2, [r7, #8]
	  d->optind++;
    aa08:	e2833001 	add	r3, r3, #1
    aa0c:	e5873000 	str	r3, [r7]
	  return '?';
    aa10:	e3a0003f 	mov	r0, #63	@ 0x3f
    aa14:	eaffffbc 	b	a90c <process_long_option+0x1a0>
      if (d->optind < argc)
    aa18:	e59d2018 	ldr	r2, [sp, #24]
    aa1c:	e1510002 	cmp	r1, r2
    aa20:	aa000048 	bge	ab48 <process_long_option+0x3dc>
	d->optarg = argv[d->optind++];
    aa24:	e59d2014 	ldr	r2, [sp, #20]
    aa28:	e2833002 	add	r3, r3, #2
    aa2c:	e7922101 	ldr	r2, [r2, r1, lsl #2]
    aa30:	e5873000 	str	r3, [r7]
    aa34:	e587200c 	str	r2, [r7, #12]
    aa38:	eaffffab 	b	a8ec <process_long_option+0x180>
	  if (print_errors)
    aa3c:	e59d305c 	ldr	r3, [sp, #92]	@ 0x5c
    aa40:	e3530000 	cmp	r3, #0
    aa44:	1a000049 	bne	ab70 <process_long_option+0x404>
	  d->optopt = pfound->val;
    aa48:	e594300c 	ldr	r3, [r4, #12]
    aa4c:	e5873008 	str	r3, [r7, #8]
	  return '?';
    aa50:	eaffffee 	b	aa10 <process_long_option+0x2a4>
	  if (print_errors)
    aa54:	e59d305c 	ldr	r3, [sp, #92]	@ 0x5c
    aa58:	e3530000 	cmp	r3, #0
    aa5c:	0a00000d 	beq	aa98 <process_long_option+0x32c>
		fprintf (stderr, _("%s: option '%s%s' is ambiguous\n"),
    aa60:	e59d3014 	ldr	r3, [sp, #20]
    aa64:	e30b51e8 	movw	r5, #45544	@ 0xb1e8
    aa68:	e3405002 	movt	r5, #2
	      if (ambig_fallback)
    aa6c:	e3590000 	cmp	r9, #0
		fprintf (stderr, _("%s: option '%s%s' is ambiguous\n"),
    aa70:	e5951000 	ldr	r1, [r5]
    aa74:	e5932000 	ldr	r2, [r3]
    aa78:	e5973014 	ldr	r3, [r7, #20]
    aa7c:	e591000c 	ldr	r0, [r1, #12]
    aa80:	e58d3000 	str	r3, [sp]
	      if (ambig_fallback)
    aa84:	0a000053 	beq	abd8 <process_long_option+0x46c>
		fprintf (stderr, _("%s: option '%s%s' is ambiguous\n"),
    aa88:	e3081c44 	movw	r1, #35908	@ 0x8c44
    aa8c:	e59d3060 	ldr	r3, [sp, #96]	@ 0x60
    aa90:	e3401002 	movt	r1, #2
    aa94:	eb003722 	bl	18724 <fprintf>
	  if (ambig_malloced)
    aa98:	e59d3024 	ldr	r3, [sp, #36]	@ 0x24
    aa9c:	e3530000 	cmp	r3, #0
    aaa0:	1a000025 	bne	ab3c <process_long_option+0x3d0>
	  d->__nextchar += strlen (d->__nextchar);
    aaa4:	e5974014 	ldr	r4, [r7, #20]
    aaa8:	e1a00004 	mov	r0, r4
    aaac:	fa005673 	blx	20480 <strlen>
	  d->optind++;
    aab0:	e5973000 	ldr	r3, [r7]
	  d->__nextchar += strlen (d->__nextchar);
    aab4:	e0844000 	add	r4, r4, r0
	  d->optopt = 0;
    aab8:	e3a02000 	mov	r2, #0
	  d->__nextchar += strlen (d->__nextchar);
    aabc:	e5874014 	str	r4, [r7, #20]
	  d->optopt = 0;
    aac0:	e5872008 	str	r2, [r7, #8]
	  d->optind++;
    aac4:	e2833001 	add	r3, r3, #1
    aac8:	e5873000 	str	r3, [r7]
	  return '?';
    aacc:	eaffffcf 	b	aa10 <process_long_option+0x2a4>
			else if ((ambig_set = malloc (n_options)) == NULL)
    aad0:	e1a00006 	mov	r0, r6
    aad4:	eb000ece 	bl	e614 <rpl_malloc>
    aad8:	e2503000 	subs	r3, r0, #0
    aadc:	e58d3010 	str	r3, [sp, #16]
    aae0:	0a00005c 	beq	ac58 <process_long_option+0x4ec>

__BEGIN_DECLS
__ssp_bos_icheck3_restrict(memcpy, void *, const void *)
__ssp_bos_icheck3(memmove, void *, const void *)
__ssp_bos_icheck3_restrict(mempcpy, void *, const void *)
__ssp_bos_icheck3(memset, void *, int)
    aae4:	e1a02006 	mov	r2, r6
    aae8:	e1a01009 	mov	r1, r9
    aaec:	eb003eef 	bl	1a6b0 <memset>
			    ambig_set[indfound] = 1;
    aaf0:	e59d3010 	ldr	r3, [sp, #16]
    aaf4:	e3a02001 	mov	r2, #1
    aaf8:	e59d1020 	ldr	r1, [sp, #32]
			  ambig_malloced = 1;
    aafc:	e58d2024 	str	r2, [sp, #36]	@ 0x24
			    ambig_set[indfound] = 1;
    ab00:	e7c32001 	strb	r2, [r3, r1]
		    if (ambig_set)
    ab04:	eaffff60 	b	a88c <process_long_option+0x120>
	    fprintf (stderr, _("%s: unrecognized option '%s%s'\n"),
    ab08:	e30b31e8 	movw	r3, #45544	@ 0xb1e8
    ab0c:	e597c014 	ldr	ip, [r7, #20]
    ab10:	e3403002 	movt	r3, #2
    ab14:	e3081c9c 	movw	r1, #35996	@ 0x8c9c
    ab18:	e5930000 	ldr	r0, [r3]
    ab1c:	e3401002 	movt	r1, #2
    ab20:	e59d3014 	ldr	r3, [sp, #20]
    ab24:	e590000c 	ldr	r0, [r0, #12]
    ab28:	e5932000 	ldr	r2, [r3]
    ab2c:	e59d3060 	ldr	r3, [sp, #96]	@ 0x60
    ab30:	e58dc000 	str	ip, [sp]
    ab34:	eb0036fa 	bl	18724 <fprintf>
    ab38:	eaffffae 	b	a9f8 <process_long_option+0x28c>
	    free (ambig_set);
    ab3c:	e59d0010 	ldr	r0, [sp, #16]
    ab40:	ebfffe44 	bl	a458 <rpl_free>
    ab44:	eaffffd6 	b	aaa4 <process_long_option+0x338>
	  if (print_errors)
    ab48:	e59d305c 	ldr	r3, [sp, #92]	@ 0x5c
    ab4c:	e3530000 	cmp	r3, #0
    ab50:	1a000013 	bne	aba4 <process_long_option+0x438>
	  d->optopt = pfound->val;
    ab54:	e594300c 	ldr	r3, [r4, #12]
    ab58:	e5873008 	str	r3, [r7, #8]
	  return optstring[0] == ':' ? ':' : '?';
    ab5c:	e59d301c 	ldr	r3, [sp, #28]
    ab60:	e5d30000 	ldrb	r0, [r3]
    ab64:	e350003a 	cmp	r0, #58	@ 0x3a
    ab68:	1affffa8 	bne	aa10 <process_long_option+0x2a4>
    ab6c:	eaffff66 	b	a90c <process_long_option+0x1a0>
	    fprintf (stderr,
    ab70:	e30b31e8 	movw	r3, #45544	@ 0xb1e8
    ab74:	e5941000 	ldr	r1, [r4]
    ab78:	e3403002 	movt	r3, #2
    ab7c:	e59d2014 	ldr	r2, [sp, #20]
    ab80:	e5933000 	ldr	r3, [r3]
    ab84:	e5922000 	ldr	r2, [r2]
    ab88:	e593000c 	ldr	r0, [r3, #12]
    ab8c:	e58d1000 	str	r1, [sp]
    ab90:	e3081cbc 	movw	r1, #36028	@ 0x8cbc
    ab94:	e59d3060 	ldr	r3, [sp, #96]	@ 0x60
    ab98:	e3401002 	movt	r1, #2
    ab9c:	eb0036e0 	bl	18724 <fprintf>
    aba0:	eaffffa8 	b	aa48 <process_long_option+0x2dc>
	    fprintf (stderr,
    aba4:	e30b31e8 	movw	r3, #45544	@ 0xb1e8
    aba8:	e59d2014 	ldr	r2, [sp, #20]
    abac:	e3403002 	movt	r3, #2
    abb0:	e3081cec 	movw	r1, #36076	@ 0x8cec
    abb4:	e5933000 	ldr	r3, [r3]
    abb8:	e3401002 	movt	r1, #2
    abbc:	e5922000 	ldr	r2, [r2]
    abc0:	e593000c 	ldr	r0, [r3, #12]
    abc4:	e5943000 	ldr	r3, [r4]
    abc8:	e58d3000 	str	r3, [sp]
    abcc:	e59d3060 	ldr	r3, [sp, #96]	@ 0x60
    abd0:	eb0036d3 	bl	18724 <fprintf>
    abd4:	eaffffde 	b	ab54 <process_long_option+0x3e8>
		  fprintf (stderr,
    abd8:	e3081c64 	movw	r1, #35940	@ 0x8c64
    abdc:	e59d3060 	ldr	r3, [sp, #96]	@ 0x60
    abe0:	e3401002 	movt	r1, #2
    abe4:	eb0036ce 	bl	18724 <fprintf>
		  for (option_index = 0; option_index < n_options; option_index++)
    abe8:	e3560000 	cmp	r6, #0
    abec:	0a000014 	beq	ac44 <process_long_option+0x4d8>
    abf0:	e59d3010 	ldr	r3, [sp, #16]
    abf4:	e2466001 	sub	r6, r6, #1
		      fprintf (stderr, " '%s%s'",
    abf8:	e3088c94 	movw	r8, #35988	@ 0x8c94
    abfc:	e59da00c 	ldr	sl, [sp, #12]
    ac00:	e3408002 	movt	r8, #2
    ac04:	e0836006 	add	r6, r3, r6
    ac08:	e2434001 	sub	r4, r3, #1
    ac0c:	ea000002 	b	ac1c <process_long_option+0x4b0>
		  for (option_index = 0; option_index < n_options; option_index++)
    ac10:	e1560004 	cmp	r6, r4
    ac14:	e2899001 	add	r9, r9, #1
    ac18:	0a000009 	beq	ac44 <process_long_option+0x4d8>
		    if (ambig_set[option_index])
    ac1c:	e5f43001 	ldrb	r3, [r4, #1]!
    ac20:	e3530000 	cmp	r3, #0
    ac24:	0afffff9 	beq	ac10 <process_long_option+0x4a4>
		      fprintf (stderr, " '%s%s'",
    ac28:	e5953000 	ldr	r3, [r5]
    ac2c:	e1a01008 	mov	r1, r8
    ac30:	e59d2060 	ldr	r2, [sp, #96]	@ 0x60
    ac34:	e593000c 	ldr	r0, [r3, #12]
    ac38:	e79a3209 	ldr	r3, [sl, r9, lsl #4]
    ac3c:	eb0036b8 	bl	18724 <fprintf>
    ac40:	eafffff2 	b	ac10 <process_long_option+0x4a4>
		  fprintf (stderr, "\n");
    ac44:	e5953000 	ldr	r3, [r5]
    ac48:	e3a0000a 	mov	r0, #10
    ac4c:	e593100c 	ldr	r1, [r3, #12]
    ac50:	eb0036d4 	bl	187a8 <fputc>
    ac54:	eaffff8f 	b	aa98 <process_long_option+0x32c>
			  ambig_fallback = 1;
    ac58:	e3a09001 	mov	r9, #1
    ac5c:	eaffff0d 	b	a898 <process_long_option+0x12c>

0000ac60 <_getopt_internal_r>:

int
_getopt_internal_r (int argc, char **argv, const char *optstring,
		    const struct option *longopts, int *longind,
		    int long_only, struct _getopt_data *d, int posixly_correct)
{
    ac60:	e92d4ff0 	push	{r4, r5, r6, r7, r8, r9, sl, fp, lr}
    ac64:	e24dd024 	sub	sp, sp, #36	@ 0x24
    ac68:	e59d4050 	ldr	r4, [sp, #80]	@ 0x50
  int print_errors = d->opterr;

  if (argc < 1)
    ac6c:	e2506000 	subs	r6, r0, #0
  int print_errors = d->opterr;
    ac70:	e594a004 	ldr	sl, [r4, #4]
  if (argc < 1)
    ac74:	da000085 	ble	ae90 <_getopt_internal_r+0x230>
    ac78:	e1a09003 	mov	r9, r3
    return -1;

  d->optarg = NULL;

  if (d->optind == 0 || !d->__initialized)
    ac7c:	e5943000 	ldr	r3, [r4]
    ac80:	e1a07002 	mov	r7, r2
  d->optarg = NULL;
    ac84:	e3a02000 	mov	r2, #0
    ac88:	e1a08001 	mov	r8, r1
    ac8c:	e584200c 	str	r2, [r4, #12]
  if (d->optind == 0 || !d->__initialized)
    ac90:	e3530000 	cmp	r3, #0
    ac94:	0a00002b 	beq	ad48 <_getopt_internal_r+0xe8>
    ac98:	e5942010 	ldr	r2, [r4, #16]
    ac9c:	e3520000 	cmp	r2, #0
    aca0:	0a00002a 	beq	ad50 <_getopt_internal_r+0xf0>
    optstring = _getopt_initialize (argc, argv, optstring, d, posixly_correct);
  else if (optstring[0] == '-' || optstring[0] == '+')
    aca4:	e5d73000 	ldrb	r3, [r7]
    print_errors = 0;

  /* Test whether ARGV[optind] points to a non-option argument.  */
#define NONOPTION_P (argv[d->optind][0] != '-' || argv[d->optind][1] == '\0')

  if (d->__nextchar == NULL || *d->__nextchar == '\0')
    aca8:	e5945014 	ldr	r5, [r4, #20]
  else if (optstring[0] == '-' || optstring[0] == '+')
    acac:	e243202b 	sub	r2, r3, #43	@ 0x2b
    acb0:	e31200fd 	tst	r2, #253	@ 0xfd
  if (optstring[0] == ':')
    acb4:	05d73001 	ldrbeq	r3, [r7, #1]
    optstring++;
    acb8:	02877001 	addeq	r7, r7, #1
    print_errors = 0;
    acbc:	e353003a 	cmp	r3, #58	@ 0x3a
    acc0:	03a0a000 	moveq	sl, #0
  if (d->__nextchar == NULL || *d->__nextchar == '\0')
    acc4:	e3550000 	cmp	r5, #0
    acc8:	0a00003a 	beq	adb8 <_getopt_internal_r+0x158>
    accc:	e5d53000 	ldrb	r3, [r5]
    acd0:	e3530000 	cmp	r3, #0
    acd4:	0a000037 	beq	adb8 <_getopt_internal_r+0x158>
    }

  /* Look at and handle the next short option-character.  */

  {
    char c = *d->__nextchar++;
    acd8:	e2853001 	add	r3, r5, #1
    const char *temp = strchr (optstring, c);
    acdc:	e1a00007 	mov	r0, r7
    char c = *d->__nextchar++;
    ace0:	e5843014 	str	r3, [r4, #20]
    ace4:	e5d5b000 	ldrb	fp, [r5]
    ace8:	e58d301c 	str	r3, [sp, #28]
    const char *temp = strchr (optstring, c);
    acec:	e1a0100b 	mov	r1, fp
    acf0:	e58db018 	str	fp, [sp, #24]
    acf4:	eb003eab 	bl	1a7a8 <strchr>

    /* Increment 'optind' when we start to process its last character.  */
    if (*d->__nextchar == '\0')
    acf8:	e5d51001 	ldrb	r1, [r5, #1]
    acfc:	e1a0200b 	mov	r2, fp
    ad00:	e59d301c 	ldr	r3, [sp, #28]
    ad04:	e3510000 	cmp	r1, #0
      ++d->optind;
    ad08:	05941000 	ldreq	r1, [r4]
    ad0c:	02811001 	addeq	r1, r1, #1
    ad10:	05841000 	streq	r1, [r4]

    if (temp == NULL || c == ':' || c == ';')
    ad14:	e24b103a 	sub	r1, fp, #58	@ 0x3a
    ad18:	e3500000 	cmp	r0, #0
    ad1c:	13510001 	cmpne	r1, #1
    ad20:	9a0000e5 	bls	b0bc <_getopt_internal_r+0x45c>
	d->optopt = c;
	return '?';
      }

    /* Convenience. Treat POSIX -W foo same as long option --foo */
    if (temp[0] == 'W' && temp[1] == ';' && longopts != NULL)
    ad24:	e5d01000 	ldrb	r1, [r0]
    ad28:	e3510057 	cmp	r1, #87	@ 0x57
    ad2c:	e5d01001 	ldrb	r1, [r0, #1]
    ad30:	0a00009b 	beq	afa4 <_getopt_internal_r+0x344>
	d->__nextchar = d->optarg;
	d->optarg = NULL;
	return process_long_option (argc, argv, optstring, longopts, longind,
				    0 /* long_only */, d, print_errors, "-W ");
      }
    if (temp[1] == ':')
    ad34:	e351003a 	cmp	r1, #58	@ 0x3a
    ad38:	0a0000c2 	beq	b048 <_getopt_internal_r+0x3e8>
	    d->__nextchar = NULL;
	  }
      }
    return c;
  }
}
    ad3c:	e1a00002 	mov	r0, r2
    ad40:	e28dd024 	add	sp, sp, #36	@ 0x24
    ad44:	e8bd8ff0 	pop	{r4, r5, r6, r7, r8, r9, sl, fp, pc}
    d->optind = 1;
    ad48:	e3a03001 	mov	r3, #1
    ad4c:	e5843000 	str	r3, [r4]
  d->__nextchar = NULL;
    ad50:	e3a05000 	mov	r5, #0
  d->__first_nonopt = d->__last_nonopt = d->optind;
    ad54:	e584301c 	str	r3, [r4, #28]
    ad58:	e5843020 	str	r3, [r4, #32]
  d->__nextchar = NULL;
    ad5c:	e5845014 	str	r5, [r4, #20]
  if (optstring[0] == '-')
    ad60:	e5d73000 	ldrb	r3, [r7]
    ad64:	e353002d 	cmp	r3, #45	@ 0x2d
    ad68:	0a00000a 	beq	ad98 <_getopt_internal_r+0x138>
  else if (optstring[0] == '+')
    ad6c:	e353002b 	cmp	r3, #43	@ 0x2b
    ad70:	0a0000c9 	beq	b09c <_getopt_internal_r+0x43c>
  else if (posixly_correct || !!getenv ("POSIXLY_CORRECT"))
    ad74:	e59d3054 	ldr	r3, [sp, #84]	@ 0x54
    ad78:	e3530000 	cmp	r3, #0
    ad7c:	0a0000a8 	beq	b024 <_getopt_internal_r+0x3c4>
    d->__ordering = REQUIRE_ORDER;
    ad80:	e3a03000 	mov	r3, #0
    ad84:	e5c43018 	strb	r3, [r4, #24]
  d->__initialized = 1;
    ad88:	e3a03001 	mov	r3, #1
    ad8c:	e5843010 	str	r3, [r4, #16]
  if (optstring[0] == ':')
    ad90:	e5d73000 	ldrb	r3, [r7]
    optstring = _getopt_initialize (argc, argv, optstring, d, posixly_correct);
    ad94:	eaffffc8 	b	acbc <_getopt_internal_r+0x5c>
      d->__ordering = RETURN_IN_ORDER;
    ad98:	e3a03002 	mov	r3, #2
    optstring = _getopt_initialize (argc, argv, optstring, d, posixly_correct);
    ad9c:	e2877001 	add	r7, r7, #1
      d->__ordering = RETURN_IN_ORDER;
    ada0:	e5c43018 	strb	r3, [r4, #24]
  d->__initialized = 1;
    ada4:	e3a03001 	mov	r3, #1
    ada8:	e5843010 	str	r3, [r4, #16]
  if (optstring[0] == ':')
    adac:	e5d73000 	ldrb	r3, [r7]
    optstring = _getopt_initialize (argc, argv, optstring, d, posixly_correct);
    adb0:	e353003a 	cmp	r3, #58	@ 0x3a
    adb4:	01a0a005 	moveq	sl, r5
      if (d->__last_nonopt > d->optind)
    adb8:	e5945000 	ldr	r5, [r4]
    adbc:	e5943020 	ldr	r3, [r4, #32]
    adc0:	e1530005 	cmp	r3, r5
      if (d->__first_nonopt > d->optind)
    adc4:	e594301c 	ldr	r3, [r4, #28]
	d->__last_nonopt = d->optind;
    adc8:	c5845020 	strgt	r5, [r4, #32]
      if (d->__first_nonopt > d->optind)
    adcc:	e1550003 	cmp	r5, r3
      if (d->__ordering == PERMUTE)
    add0:	e5d43018 	ldrb	r3, [r4, #24]
	d->__first_nonopt = d->optind;
    add4:	b584501c 	strlt	r5, [r4, #28]
      if (d->__ordering == PERMUTE)
    add8:	e3530001 	cmp	r3, #1
    addc:	0a00002d 	beq	ae98 <_getopt_internal_r+0x238>
      if (d->optind != argc && !strcmp (argv[d->optind], "--"))
    ade0:	e1560005 	cmp	r6, r5
    ade4:	0a000025 	beq	ae80 <_getopt_internal_r+0x220>
    ade8:	e798b105 	ldr	fp, [r8, r5, lsl #2]
    adec:	e5db3000 	ldrb	r3, [fp]
    adf0:	e353002d 	cmp	r3, #45	@ 0x2d
    adf4:	1a000014 	bne	ae4c <_getopt_internal_r+0x1ec>
    adf8:	e5db3001 	ldrb	r3, [fp, #1]
    adfc:	e353002d 	cmp	r3, #45	@ 0x2d
    ae00:	1a000011 	bne	ae4c <_getopt_internal_r+0x1ec>
    ae04:	e5db3002 	ldrb	r3, [fp, #2]
    ae08:	e3530000 	cmp	r3, #0
    ae0c:	1a00000e 	bne	ae4c <_getopt_internal_r+0x1ec>
	  if (d->__first_nonopt != d->__last_nonopt
    ae10:	e594301c 	ldr	r3, [r4, #28]
	  d->optind++;
    ae14:	e2855001 	add	r5, r5, #1
	  if (d->__first_nonopt != d->__last_nonopt
    ae18:	e5942020 	ldr	r2, [r4, #32]
	  d->optind++;
    ae1c:	e5845000 	str	r5, [r4]
	  if (d->__first_nonopt != d->__last_nonopt
    ae20:	e1530002 	cmp	r3, r2
    ae24:	0a0000af 	beq	b0e8 <_getopt_internal_r+0x488>
	      && d->__last_nonopt != d->optind)
    ae28:	e1550002 	cmp	r5, r2
    ae2c:	0a000003 	beq	ae40 <_getopt_internal_r+0x1e0>
	    exchange (argv, d);
    ae30:	e1a01004 	mov	r1, r4
    ae34:	e1a00008 	mov	r0, r8
    ae38:	ebfffe18 	bl	a6a0 <exchange>
	  if (d->__first_nonopt != d->__last_nonopt)
    ae3c:	e594301c 	ldr	r3, [r4, #28]
	  d->__last_nonopt = argc;
    ae40:	e5846020 	str	r6, [r4, #32]
	  d->optind = argc;
    ae44:	e5846000 	str	r6, [r4]
    ae48:	ea00000e 	b	ae88 <_getopt_internal_r+0x228>
      if (NONOPTION_P)
    ae4c:	e5db3000 	ldrb	r3, [fp]
    ae50:	e353002d 	cmp	r3, #45	@ 0x2d
    ae54:	0a00002a 	beq	af04 <_getopt_internal_r+0x2a4>
	  if (d->__ordering == REQUIRE_ORDER)
    ae58:	e5d43018 	ldrb	r3, [r4, #24]
    ae5c:	e3530000 	cmp	r3, #0
    ae60:	0a00000a 	beq	ae90 <_getopt_internal_r+0x230>
	  d->optarg = argv[d->optind++];
    ae64:	e2855001 	add	r5, r5, #1
	  return 1;
    ae68:	e3a02001 	mov	r2, #1
}
    ae6c:	e1a00002 	mov	r0, r2
	  d->optarg = argv[d->optind++];
    ae70:	e5845000 	str	r5, [r4]
    ae74:	e584b00c 	str	fp, [r4, #12]
}
    ae78:	e28dd024 	add	sp, sp, #36	@ 0x24
    ae7c:	e8bd8ff0 	pop	{r4, r5, r6, r7, r8, r9, sl, fp, pc}
	  if (d->__first_nonopt != d->__last_nonopt)
    ae80:	e594301c 	ldr	r3, [r4, #28]
    ae84:	e5946020 	ldr	r6, [r4, #32]
    ae88:	e1530006 	cmp	r3, r6
	    d->optind = d->__first_nonopt;
    ae8c:	15843000 	strne	r3, [r4]
    return -1;
    ae90:	e3e02000 	mvn	r2, #0
    ae94:	eaffffa8 	b	ad3c <_getopt_internal_r+0xdc>
	  if (d->__first_nonopt != d->__last_nonopt
    ae98:	e1c421dc 	ldrd	r2, [r4, #28]
    ae9c:	e1520003 	cmp	r2, r3
    aea0:	0a000078 	beq	b088 <_getopt_internal_r+0x428>
	      && d->__last_nonopt != d->optind)
    aea4:	e1550003 	cmp	r5, r3
    aea8:	0a000002 	beq	aeb8 <_getopt_internal_r+0x258>
	    exchange (argv, d);
    aeac:	e1a01004 	mov	r1, r4
    aeb0:	e1a00008 	mov	r0, r8
    aeb4:	ebfffdf9 	bl	a6a0 <exchange>
	  while (d->optind < argc && NONOPTION_P)
    aeb8:	e1550006 	cmp	r5, r6
    aebc:	aa000074 	bge	b094 <_getopt_internal_r+0x434>
    aec0:	e0882105 	add	r2, r8, r5, lsl #2
    aec4:	ea000003 	b	aed8 <_getopt_internal_r+0x278>
	    d->optind++;
    aec8:	e2855001 	add	r5, r5, #1
	  while (d->optind < argc && NONOPTION_P)
    aecc:	e1550006 	cmp	r5, r6
	    d->optind++;
    aed0:	e5845000 	str	r5, [r4]
	  while (d->optind < argc && NONOPTION_P)
    aed4:	0a00006e 	beq	b094 <_getopt_internal_r+0x434>
    aed8:	e4923004 	ldr	r3, [r2], #4
    aedc:	e5d31000 	ldrb	r1, [r3]
    aee0:	e351002d 	cmp	r1, #45	@ 0x2d
    aee4:	1afffff7 	bne	aec8 <_getopt_internal_r+0x268>
    aee8:	e5d33001 	ldrb	r3, [r3, #1]
    aeec:	e3530000 	cmp	r3, #0
    aef0:	0afffff4 	beq	aec8 <_getopt_internal_r+0x268>
      if (d->optind != argc && !strcmp (argv[d->optind], "--"))
    aef4:	e1a03005 	mov	r3, r5
    aef8:	e5945000 	ldr	r5, [r4]
	  d->__last_nonopt = d->optind;
    aefc:	e5843020 	str	r3, [r4, #32]
    af00:	eaffffb6 	b	ade0 <_getopt_internal_r+0x180>
      if (NONOPTION_P)
    af04:	e5db1001 	ldrb	r1, [fp, #1]
    af08:	e3510000 	cmp	r1, #0
    af0c:	0affffd1 	beq	ae58 <_getopt_internal_r+0x1f8>
      if (longopts)
    af10:	e3590000 	cmp	r9, #0
    af14:	0a000020 	beq	af9c <_getopt_internal_r+0x33c>
	  if (argv[d->optind][1] == '-')
    af18:	e351002d 	cmp	r1, #45	@ 0x2d
    af1c:	0a00008f 	beq	b160 <_getopt_internal_r+0x500>
	  if (long_only && (argv[d->optind][2]
    af20:	e59d304c 	ldr	r3, [sp, #76]	@ 0x4c
    af24:	e3530000 	cmp	r3, #0
    af28:	0a00001b 	beq	af9c <_getopt_internal_r+0x33c>
    af2c:	e5db3002 	ldrb	r3, [fp, #2]
    af30:	e3530000 	cmp	r3, #0
    af34:	1a000003 	bne	af48 <_getopt_internal_r+0x2e8>
			    || !strchr (optstring, argv[d->optind][1])))
    af38:	e1a00007 	mov	r0, r7
    af3c:	eb003e19 	bl	1a7a8 <strchr>
    af40:	e3500000 	cmp	r0, #0
    af44:	1a000014 	bne	af9c <_getopt_internal_r+0x33c>
	      code = process_long_option (argc, argv, optstring, longopts,
    af48:	e59d304c 	ldr	r3, [sp, #76]	@ 0x4c
	      d->__nextchar = argv[d->optind] + 1;
    af4c:	e28b5001 	add	r5, fp, #1
    af50:	e5845014 	str	r5, [r4, #20]
	      code = process_long_option (argc, argv, optstring, longopts,
    af54:	e1a02007 	mov	r2, r7
    af58:	e1a01008 	mov	r1, r8
    af5c:	e1a00006 	mov	r0, r6
    af60:	e58d3004 	str	r3, [sp, #4]
    af64:	e59d3048 	ldr	r3, [sp, #72]	@ 0x48
    af68:	e58da00c 	str	sl, [sp, #12]
    af6c:	e58d4008 	str	r4, [sp, #8]
    af70:	e58d3000 	str	r3, [sp]
    af74:	e3083998 	movw	r3, #35224	@ 0x8998
    af78:	e3403002 	movt	r3, #2
    af7c:	e58d3010 	str	r3, [sp, #16]
    af80:	e1a03009 	mov	r3, r9
    af84:	ebfffdf8 	bl	a76c <process_long_option>
	      if (code != -1)
    af88:	e3700001 	cmn	r0, #1
	      code = process_long_option (argc, argv, optstring, longopts,
    af8c:	e1a02000 	mov	r2, r0
	      if (code != -1)
    af90:	1affff69 	bne	ad3c <_getopt_internal_r+0xdc>
      d->__nextchar = argv[d->optind] + 1;
    af94:	e5943000 	ldr	r3, [r4]
    af98:	e798b103 	ldr	fp, [r8, r3, lsl #2]
    af9c:	e28b5001 	add	r5, fp, #1
    afa0:	eaffff4c 	b	acd8 <_getopt_internal_r+0x78>
    if (temp[0] == 'W' && temp[1] == ';' && longopts != NULL)
    afa4:	e241c03b 	sub	ip, r1, #59	@ 0x3b
    afa8:	e3590000 	cmp	r9, #0
    afac:	e16fcf1c 	clz	ip, ip
    afb0:	e1a0c2ac 	lsr	ip, ip, #5
    afb4:	03a0c000 	moveq	ip, #0
    afb8:	e35c0000 	cmp	ip, #0
    afbc:	0affff5c 	beq	ad34 <_getopt_internal_r+0xd4>
	if (*d->__nextchar != '\0')
    afc0:	e5d52001 	ldrb	r2, [r5, #1]
    afc4:	e3520000 	cmp	r2, #0
    afc8:	1a000003 	bne	afdc <_getopt_internal_r+0x37c>
	else if (d->optind == argc)
    afcc:	e5943000 	ldr	r3, [r4]
    afd0:	e1530006 	cmp	r3, r6
	  d->optarg = argv[d->optind];
    afd4:	17983103 	ldrne	r3, [r8, r3, lsl #2]
	else if (d->optind == argc)
    afd8:	0a000072 	beq	b1a8 <_getopt_internal_r+0x548>
	return process_long_option (argc, argv, optstring, longopts, longind,
    afdc:	e59dc048 	ldr	ip, [sp, #72]	@ 0x48
    afe0:	e1a02007 	mov	r2, r7
	d->__nextchar = d->optarg;
    afe4:	e5843014 	str	r3, [r4, #20]
	return process_long_option (argc, argv, optstring, longopts, longind,
    afe8:	e1a01008 	mov	r1, r8
    afec:	e58da00c 	str	sl, [sp, #12]
    aff0:	e1a03009 	mov	r3, r9
    aff4:	e58dc000 	str	ip, [sp]
    aff8:	e308cd60 	movw	ip, #36192	@ 0x8d60
    affc:	e340c002 	movt	ip, #2
    b000:	e58d4008 	str	r4, [sp, #8]
    b004:	e58dc010 	str	ip, [sp, #16]
	d->optarg = NULL;
    b008:	e3a0c000 	mov	ip, #0
    b00c:	e584c00c 	str	ip, [r4, #12]
	return process_long_option (argc, argv, optstring, longopts, longind,
    b010:	e1a00006 	mov	r0, r6
    b014:	e58dc004 	str	ip, [sp, #4]
    b018:	ebfffdd3 	bl	a76c <process_long_option>
    b01c:	e1a02000 	mov	r2, r0
    b020:	eaffff45 	b	ad3c <_getopt_internal_r+0xdc>
  else if (posixly_correct || !!getenv ("POSIXLY_CORRECT"))
    b024:	e3080914 	movw	r0, #35092	@ 0x8914
    b028:	e3400002 	movt	r0, #2
    b02c:	eb002ded 	bl	167e8 <getenv>
    b030:	e3500000 	cmp	r0, #0
  if (d->__nextchar == NULL || *d->__nextchar == '\0')
    b034:	e5945014 	ldr	r5, [r4, #20]
  else if (posixly_correct || !!getenv ("POSIXLY_CORRECT"))
    b038:	1affff50 	bne	ad80 <_getopt_internal_r+0x120>
    d->__ordering = PERMUTE;
    b03c:	e3a03001 	mov	r3, #1
    b040:	e5c43018 	strb	r3, [r4, #24]
    b044:	eaffff4f 	b	ad88 <_getopt_internal_r+0x128>
	if (temp[2] == ':')
    b048:	e5d01002 	ldrb	r1, [r0, #2]
    b04c:	e351003a 	cmp	r1, #58	@ 0x3a
	if (*d->__nextchar != '\0')
    b050:	e5d51001 	ldrb	r1, [r5, #1]
	if (temp[2] == ':')
    b054:	0a000030 	beq	b11c <_getopt_internal_r+0x4bc>
	    if (*d->__nextchar != '\0')
    b058:	e3510000 	cmp	r1, #0
	else if (d->optind == argc)
    b05c:	e5941000 	ldr	r1, [r4]
	    if (*d->__nextchar != '\0')
    b060:	1a00001c 	bne	b0d8 <_getopt_internal_r+0x478>
	    else if (d->optind == argc)
    b064:	e1560001 	cmp	r6, r1
    b068:	0a000034 	beq	b140 <_getopt_internal_r+0x4e0>
	      d->optarg = argv[d->optind++];
    b06c:	e7983101 	ldr	r3, [r8, r1, lsl #2]
    b070:	e2811001 	add	r1, r1, #1
    b074:	e5841000 	str	r1, [r4]
    b078:	e584300c 	str	r3, [r4, #12]
	    d->__nextchar = NULL;
    b07c:	e3a03000 	mov	r3, #0
    b080:	e5843014 	str	r3, [r4, #20]
    return c;
    b084:	eaffff2c 	b	ad3c <_getopt_internal_r+0xdc>
	  else if (d->__last_nonopt != d->optind)
    b088:	e1550002 	cmp	r5, r2
	    d->__first_nonopt = d->optind;
    b08c:	1584501c 	strne	r5, [r4, #28]
    b090:	eaffff88 	b	aeb8 <_getopt_internal_r+0x258>
    b094:	e1a03005 	mov	r3, r5
    b098:	eaffff97 	b	aefc <_getopt_internal_r+0x29c>
  d->__initialized = 1;
    b09c:	e3a03001 	mov	r3, #1
      d->__ordering = REQUIRE_ORDER;
    b0a0:	e5c45018 	strb	r5, [r4, #24]
  d->__initialized = 1;
    b0a4:	e5843010 	str	r3, [r4, #16]
    optstring = _getopt_initialize (argc, argv, optstring, d, posixly_correct);
    b0a8:	e2877001 	add	r7, r7, #1
  if (optstring[0] == ':')
    b0ac:	e5d73000 	ldrb	r3, [r7]
    optstring = _getopt_initialize (argc, argv, optstring, d, posixly_correct);
    b0b0:	e353003a 	cmp	r3, #58	@ 0x3a
    b0b4:	03a0a000 	moveq	sl, #0
    b0b8:	eaffff3e 	b	adb8 <_getopt_internal_r+0x158>
	if (print_errors)
    b0bc:	e35a0000 	cmp	sl, #0
    b0c0:	1a00000b 	bne	b0f4 <_getopt_internal_r+0x494>
	return '?';
    b0c4:	e3a0203f 	mov	r2, #63	@ 0x3f
	d->optopt = c;
    b0c8:	e584b008 	str	fp, [r4, #8]
}
    b0cc:	e1a00002 	mov	r0, r2
    b0d0:	e28dd024 	add	sp, sp, #36	@ 0x24
    b0d4:	e8bd8ff0 	pop	{r4, r5, r6, r7, r8, r9, sl, fp, pc}
		d->optind++;
    b0d8:	e2811001 	add	r1, r1, #1
		d->optarg = d->__nextchar;
    b0dc:	e584300c 	str	r3, [r4, #12]
		d->optind++;
    b0e0:	e5841000 	str	r1, [r4]
    b0e4:	eaffffe4 	b	b07c <_getopt_internal_r+0x41c>
	    d->__first_nonopt = d->optind;
    b0e8:	e1a03005 	mov	r3, r5
    b0ec:	e584501c 	str	r5, [r4, #28]
    b0f0:	eaffff52 	b	ae40 <_getopt_internal_r+0x1e0>
	  fprintf (stderr, _("%s: invalid option -- '%c'\n"), argv[0], c);
    b0f4:	e30b11e8 	movw	r1, #45544	@ 0xb1e8
    b0f8:	e5982000 	ldr	r2, [r8]
    b0fc:	e3401002 	movt	r1, #2
    b100:	e1a0300b 	mov	r3, fp
    b104:	e5911000 	ldr	r1, [r1]
    b108:	e591000c 	ldr	r0, [r1, #12]
    b10c:	e3081d18 	movw	r1, #36120	@ 0x8d18
    b110:	e3401002 	movt	r1, #2
    b114:	eb003582 	bl	18724 <fprintf>
    b118:	eaffffe9 	b	b0c4 <_getopt_internal_r+0x464>
	    if (*d->__nextchar != '\0')
    b11c:	e3510000 	cmp	r1, #0
		d->optind++;
    b120:	15941000 	ldrne	r1, [r4]
	      d->optarg = NULL;
    b124:	01a03001 	moveq	r3, r1
    b128:	e584300c 	str	r3, [r4, #12]
		d->optind++;
    b12c:	12811001 	addne	r1, r1, #1
    b130:	15841000 	strne	r1, [r4]
	    d->__nextchar = NULL;
    b134:	e3a01000 	mov	r1, #0
    b138:	e5841014 	str	r1, [r4, #20]
    b13c:	eafffefe 	b	ad3c <_getopt_internal_r+0xdc>
		if (print_errors)
    b140:	e35a0000 	cmp	sl, #0
    b144:	1a00001f 	bne	b1c8 <_getopt_internal_r+0x568>
		d->optopt = c;
    b148:	e584b008 	str	fp, [r4, #8]
		if (optstring[0] == ':')
    b14c:	e5d73000 	ldrb	r3, [r7]
    b150:	e353003a 	cmp	r3, #58	@ 0x3a
    b154:	13a0203f 	movne	r2, #63	@ 0x3f
    b158:	03a0203a 	moveq	r2, #58	@ 0x3a
    b15c:	eaffffc6 	b	b07c <_getopt_internal_r+0x41c>
	      return process_long_option (argc, argv, optstring, longopts,
    b160:	e59dc04c 	ldr	ip, [sp, #76]	@ 0x4c
	      d->__nextchar = argv[d->optind] + 2;
    b164:	e28b5002 	add	r5, fp, #2
	      return process_long_option (argc, argv, optstring, longopts,
    b168:	e58da00c 	str	sl, [sp, #12]
    b16c:	e1a02007 	mov	r2, r7
	      d->__nextchar = argv[d->optind] + 2;
    b170:	e5845014 	str	r5, [r4, #20]
	      return process_long_option (argc, argv, optstring, longopts,
    b174:	e1a03009 	mov	r3, r9
    b178:	e58dc004 	str	ip, [sp, #4]
    b17c:	e1a01008 	mov	r1, r8
    b180:	e59dc048 	ldr	ip, [sp, #72]	@ 0x48
    b184:	e1a00006 	mov	r0, r6
    b188:	e58d4008 	str	r4, [sp, #8]
    b18c:	e58dc000 	str	ip, [sp]
    b190:	e308cd14 	movw	ip, #36116	@ 0x8d14
    b194:	e340c002 	movt	ip, #2
    b198:	e58dc010 	str	ip, [sp, #16]
    b19c:	ebfffd72 	bl	a76c <process_long_option>
    b1a0:	e1a02000 	mov	r2, r0
    b1a4:	eafffee4 	b	ad3c <_getopt_internal_r+0xdc>
	    if (print_errors)
    b1a8:	e35a0000 	cmp	sl, #0
    b1ac:	1a00000f 	bne	b1f0 <_getopt_internal_r+0x590>
	    d->optopt = c;
    b1b0:	e584b008 	str	fp, [r4, #8]
	    if (optstring[0] == ':')
    b1b4:	e5d73000 	ldrb	r3, [r7]
    b1b8:	e353003a 	cmp	r3, #58	@ 0x3a
    b1bc:	13a0203f 	movne	r2, #63	@ 0x3f
    b1c0:	03a0203a 	moveq	r2, #58	@ 0x3a
    b1c4:	eafffedc 	b	ad3c <_getopt_internal_r+0xdc>
		  fprintf (stderr,
    b1c8:	e30b31e8 	movw	r3, #45544	@ 0xb1e8
    b1cc:	e3081d34 	movw	r1, #36148	@ 0x8d34
    b1d0:	e3403002 	movt	r3, #2
    b1d4:	e5982000 	ldr	r2, [r8]
    b1d8:	e5933000 	ldr	r3, [r3]
    b1dc:	e3401002 	movt	r1, #2
    b1e0:	e593000c 	ldr	r0, [r3, #12]
    b1e4:	e1a0300b 	mov	r3, fp
    b1e8:	eb00354d 	bl	18724 <fprintf>
    b1ec:	eaffffd5 	b	b148 <_getopt_internal_r+0x4e8>
	      fprintf (stderr,
    b1f0:	e30b31e8 	movw	r3, #45544	@ 0xb1e8
    b1f4:	e3081d34 	movw	r1, #36148	@ 0x8d34
    b1f8:	e3403002 	movt	r3, #2
    b1fc:	e5982000 	ldr	r2, [r8]
    b200:	e5933000 	ldr	r3, [r3]
    b204:	e3401002 	movt	r1, #2
    b208:	e593000c 	ldr	r0, [r3, #12]
    b20c:	e1a0300b 	mov	r3, fp
    b210:	eb003543 	bl	18724 <fprintf>
    b214:	eaffffe5 	b	b1b0 <_getopt_internal_r+0x550>

0000b218 <rpl_getopt_internal>:

int
_getopt_internal (int argc, char **argv, const char *optstring,
		  const struct option *longopts, int *longind, int long_only,
		  int posixly_correct)
{
    b218:	e92d4030 	push	{r4, r5, lr}
    b21c:	e24dd014 	sub	sp, sp, #20
    b220:	e59dc020 	ldr	ip, [sp, #32]
  int result;

  getopt_data.optind = optind;
    b224:	e30b5018 	movw	r5, #45080	@ 0xb018
    b228:	e3405002 	movt	r5, #2
    b22c:	e30b43bc 	movw	r4, #46012	@ 0xb3bc
    b230:	e3404002 	movt	r4, #2
  getopt_data.opterr = opterr;

  result = _getopt_internal_r (argc, argv, optstring, longopts,
    b234:	e58dc000 	str	ip, [sp]
{
    b238:	e59dc024 	ldr	ip, [sp, #36]	@ 0x24
  result = _getopt_internal_r (argc, argv, optstring, longopts,
    b23c:	e58dc004 	str	ip, [sp, #4]
{
    b240:	e59dc028 	ldr	ip, [sp, #40]	@ 0x28
  result = _getopt_internal_r (argc, argv, optstring, longopts,
    b244:	e58dc00c 	str	ip, [sp, #12]
  getopt_data.optind = optind;
    b248:	e595e000 	ldr	lr, [r5]
  getopt_data.opterr = opterr;
    b24c:	e595c004 	ldr	ip, [r5, #4]
  getopt_data.optind = optind;
    b250:	e584e000 	str	lr, [r4]
  getopt_data.opterr = opterr;
    b254:	e584c004 	str	ip, [r4, #4]
  result = _getopt_internal_r (argc, argv, optstring, longopts,
    b258:	e58d4008 	str	r4, [sp, #8]
    b25c:	ebfffe7f 	bl	ac60 <_getopt_internal_r>
			       longind, long_only, &getopt_data,
			       posixly_correct);

  optind = getopt_data.optind;
  optarg = getopt_data.optarg;
    b260:	e594300c 	ldr	r3, [r4, #12]
  optind = getopt_data.optind;
    b264:	e5942000 	ldr	r2, [r4]
  optarg = getopt_data.optarg;
    b268:	e5843024 	str	r3, [r4, #36]	@ 0x24
  optopt = getopt_data.optopt;
    b26c:	e5943008 	ldr	r3, [r4, #8]
  optind = getopt_data.optind;
    b270:	e5852000 	str	r2, [r5]
  optopt = getopt_data.optopt;
    b274:	e5853008 	str	r3, [r5, #8]

  return result;
}
    b278:	e28dd014 	add	sp, sp, #20
    b27c:	e8bd8030 	pop	{r4, r5, pc}

0000b280 <rpl_getopt>:

#ifdef _LIBC
GETOPT_ENTRY(getopt, 0)
GETOPT_ENTRY(__posix_getopt, 1)
#else
GETOPT_ENTRY(getopt, 1)
    b280:	e92d4030 	push	{r4, r5, lr}
  getopt_data.optind = optind;
    b284:	e30b5018 	movw	r5, #45080	@ 0xb018
    b288:	e30b43bc 	movw	r4, #46012	@ 0xb3bc
GETOPT_ENTRY(getopt, 1)
    b28c:	e24dd014 	sub	sp, sp, #20
  getopt_data.optind = optind;
    b290:	e3404002 	movt	r4, #2
    b294:	e3405002 	movt	r5, #2
  result = _getopt_internal_r (argc, argv, optstring, longopts,
    b298:	e58d4008 	str	r4, [sp, #8]
    b29c:	e3a0c001 	mov	ip, #1
  getopt_data.optind = optind;
    b2a0:	e5953000 	ldr	r3, [r5]
    b2a4:	e5843000 	str	r3, [r4]
  getopt_data.opterr = opterr;
    b2a8:	e5953004 	ldr	r3, [r5, #4]
    b2ac:	e5843004 	str	r3, [r4, #4]
  result = _getopt_internal_r (argc, argv, optstring, longopts,
    b2b0:	e3a03000 	mov	r3, #0
    b2b4:	e58d3004 	str	r3, [sp, #4]
    b2b8:	e58d3000 	str	r3, [sp]
    b2bc:	e58dc00c 	str	ip, [sp, #12]
    b2c0:	ebfffe66 	bl	ac60 <_getopt_internal_r>
  optarg = getopt_data.optarg;
    b2c4:	e594300c 	ldr	r3, [r4, #12]
  optind = getopt_data.optind;
    b2c8:	e5942000 	ldr	r2, [r4]
  optarg = getopt_data.optarg;
    b2cc:	e5843024 	str	r3, [r4, #36]	@ 0x24
  optopt = getopt_data.optopt;
    b2d0:	e5943008 	ldr	r3, [r4, #8]
  optind = getopt_data.optind;
    b2d4:	e5852000 	str	r2, [r5]
  optopt = getopt_data.optopt;
    b2d8:	e5853008 	str	r3, [r5, #8]
GETOPT_ENTRY(getopt, 1)
    b2dc:	e28dd014 	add	sp, sp, #20
    b2e0:	e8bd8030 	pop	{r4, r5, pc}

0000b2e4 <rpl_getopt_long>:
#include "getopt_int.h"

int
getopt_long (int argc, char *__getopt_argv_const *argv, const char *options,
	     const struct option *long_options, int *opt_index)
{
    b2e4:	e52de004 	push	{lr}		@ (str lr, [sp, #-4]!)
    b2e8:	e24dd014 	sub	sp, sp, #20
    b2ec:	e59dc018 	ldr	ip, [sp, #24]
  return _getopt_internal (argc, (char **) argv, options, long_options,
    b2f0:	e58dc000 	str	ip, [sp]
    b2f4:	e3a0c000 	mov	ip, #0
    b2f8:	e58dc008 	str	ip, [sp, #8]
    b2fc:	e58dc004 	str	ip, [sp, #4]
    b300:	ebffffc4 	bl	b218 <rpl_getopt_internal>
			   opt_index, 0, 0);
}
    b304:	e28dd014 	add	sp, sp, #20
    b308:	e49df004 	pop	{pc}		@ (ldr pc, [sp], #4)

0000b30c <_getopt_long_r>:

int
_getopt_long_r (int argc, char **argv, const char *options,
		const struct option *long_options, int *opt_index,
		struct _getopt_data *d)
{
    b30c:	e52de004 	push	{lr}		@ (str lr, [sp, #-4]!)
    b310:	e24dd014 	sub	sp, sp, #20
    b314:	e59dc018 	ldr	ip, [sp, #24]
  return _getopt_internal_r (argc, argv, options, long_options, opt_index,
    b318:	e58dc000 	str	ip, [sp]
{
    b31c:	e59dc01c 	ldr	ip, [sp, #28]
  return _getopt_internal_r (argc, argv, options, long_options, opt_index,
    b320:	e58dc008 	str	ip, [sp, #8]
    b324:	e3a0c000 	mov	ip, #0
    b328:	e58dc00c 	str	ip, [sp, #12]
    b32c:	e58dc004 	str	ip, [sp, #4]
    b330:	ebfffe4a 	bl	ac60 <_getopt_internal_r>
			     0, d, 0);
}
    b334:	e28dd014 	add	sp, sp, #20
    b338:	e49df004 	pop	{pc}		@ (ldr pc, [sp], #4)

0000b33c <rpl_getopt_long_only>:

int
getopt_long_only (int argc, char *__getopt_argv_const *argv,
		  const char *options,
		  const struct option *long_options, int *opt_index)
{
    b33c:	e52de004 	push	{lr}		@ (str lr, [sp, #-4]!)
    b340:	e24dd014 	sub	sp, sp, #20
    b344:	e59dc018 	ldr	ip, [sp, #24]
  return _getopt_internal (argc, (char **) argv, options, long_options,
    b348:	e3a0e000 	mov	lr, #0
    b34c:	e58dc000 	str	ip, [sp]
    b350:	e3a0c001 	mov	ip, #1
    b354:	e98d5000 	stmib	sp, {ip, lr}
    b358:	ebffffae 	bl	b218 <rpl_getopt_internal>
			   opt_index, 1, 0);
}
    b35c:	e28dd014 	add	sp, sp, #20
    b360:	e49df004 	pop	{pc}		@ (ldr pc, [sp], #4)

0000b364 <_getopt_long_only_r>:

int
_getopt_long_only_r (int argc, char **argv, const char *options,
		     const struct option *long_options, int *opt_index,
		     struct _getopt_data *d)
{
    b364:	e52de004 	push	{lr}		@ (str lr, [sp, #-4]!)
    b368:	e24dd014 	sub	sp, sp, #20
    b36c:	e59dc018 	ldr	ip, [sp, #24]
  return _getopt_internal_r (argc, argv, options, long_options, opt_index,
    b370:	e58dc000 	str	ip, [sp]
{
    b374:	e59dc01c 	ldr	ip, [sp, #28]
  return _getopt_internal_r (argc, argv, options, long_options, opt_index,
    b378:	e58dc008 	str	ip, [sp, #8]
    b37c:	e3a0c001 	mov	ip, #1
    b380:	e58dc004 	str	ip, [sp, #4]
    b384:	e3a0c000 	mov	ip, #0
    b388:	e58dc00c 	str	ip, [sp, #12]
    b38c:	ebfffe33 	bl	ac60 <_getopt_internal_r>
			     1, d, 0);
}
    b390:	e28dd014 	add	sp, sp, #20
    b394:	e49df004 	pop	{pc}		@ (ldr pc, [sp], #4)

0000b398 <getprogname>:
  /* Be careful to declare this only when we absolutely need it
     (OpenBSD 5.1), rather than when it's available.  Otherwise,
     its mere declaration makes program_invocation_short_name
     malfunction (have zero length) with Fedora 25's glibc.  */
  extern char *__progname;
  const char *p = __progname;
    b398:	e30b385c 	movw	r3, #47196	@ 0xb85c
    b39c:	e3403002 	movt	r3, #2
    b3a0:	e5930000 	ldr	r0, [r3]
#  if defined __ANDROID__
  return last_component (p);
#  else
  return p && p[0] ? p : "?";
    b3a4:	e3500000 	cmp	r0, #0
    b3a8:	0a000005 	beq	b3c4 <getprogname+0x2c>
    b3ac:	e5d02000 	ldrb	r2, [r0]
    b3b0:	e3083d64 	movw	r3, #36196	@ 0x8d64
    b3b4:	e3403002 	movt	r3, #2
    b3b8:	e3520000 	cmp	r2, #0
    b3bc:	01a00003 	moveq	r0, r3
    b3c0:	e12fff1e 	bx	lr
    b3c4:	e3080d64 	movw	r0, #36196	@ 0x8d64
    b3c8:	e3400002 	movt	r0, #2
    }
  return "?";
# else
#  error "getprogname module not ported to this OS"
# endif
}
    b3cc:	e12fff1e 	bx	lr

0000b3d0 <umaxtostr>:
   INT_BUFSIZE_BOUND (INTTYPE) bytes long.  Return the address of the
   printable string, which need not start at BUF.  */

_GL_ATTRIBUTE_NODISCARD char *
anytostr (inttype i, char *buf)
{
    b3d0:	e92d43f0 	push	{r4, r5, r6, r7, r8, r9, lr}
    b3d4:	e30c4ccd 	movw	r4, #52429	@ 0xcccd
    b3d8:	e30c7ccc 	movw	r7, #52428	@ 0xcccc
    b3dc:	e1a03000 	mov	r3, r0
    b3e0:	e34c4ccc 	movt	r4, #52428	@ 0xcccc
  char *p = buf + INT_STRLEN_BOUND (inttype);
    b3e4:	e2820014 	add	r0, r2, #20
  *p = 0;
    b3e8:	e34c7ccc 	movt	r7, #52428	@ 0xcccc
    b3ec:	e3a06005 	mov	r6, #5
    b3f0:	e3a0c000 	mov	ip, #0
    b3f4:	e5c2c014 	strb	ip, [r2, #20]
      *--p = '-';
    }
  else
    {
      do
        *--p = '0' + i % 10;
    b3f8:	e093c001 	adds	ip, r3, r1
    b3fc:	e1a08003 	mov	r8, r3
    b400:	e2acc000 	adc	ip, ip, #0
    b404:	e1a05001 	mov	r5, r1
    b408:	e08e2c94 	umull	r2, lr, r4, ip
    b40c:	e3ce2003 	bic	r2, lr, #3
    b410:	e082212e 	add	r2, r2, lr, lsr #2
    b414:	e04cc002 	sub	ip, ip, r2
    b418:	e053200c 	subs	r2, r3, ip
    b41c:	e0893492 	umull	r3, r9, r2, r4
    b420:	e2c11000 	sbc	r1, r1, #0
    b424:	e0020297 	mul	r2, r7, r2
    b428:	e0222194 	mla	r2, r4, r1, r2
    b42c:	e2031001 	and	r1, r3, #1
    b430:	e1a030a3 	lsr	r3, r3, #1
    b434:	e081e691 	umull	lr, r1, r1, r6
    b438:	e0822009 	add	r2, r2, r9
      while ((i /= 10) != 0);
    b43c:	e1833f82 	orr	r3, r3, r2, lsl #31
    b440:	e1a010a2 	lsr	r1, r2, #1
    b444:	e09ee00c 	adds	lr, lr, ip
    b448:	e358000a 	cmp	r8, #10
    b44c:	e2d55000 	sbcs	r5, r5, #0
        *--p = '0' + i % 10;
    b450:	e28ee030 	add	lr, lr, #48	@ 0x30
    b454:	e560e001 	strb	lr, [r0, #-1]!
      while ((i /= 10) != 0);
    b458:	2affffe6 	bcs	b3f8 <umaxtostr+0x28>
    b45c:	e8bd83f0 	pop	{r4, r5, r6, r7, r8, r9, pc}

0000b460 <rpl_mbrtowc>:

# undef mbrtowc

size_t
rpl_mbrtowc (wchar_t *pwc, const char *s, size_t n, mbstate_t *ps)
{
    b460:	e92d40f0 	push	{r4, r5, r6, r7, lr}
# if MBRTOWC_EMPTY_INPUT_BUG
  if (n == 0)
    return (size_t) -2;
# endif

  if (! pwc)
    b464:	e2507000 	subs	r7, r0, #0
{
    b468:	e24dd00c 	sub	sp, sp, #12
    b46c:	e1a05002 	mov	r5, r2
    pwc = &wc;
    b470:	028d7004 	addeq	r7, sp, #4
{
    b474:	e1a06001 	mov	r6, r1
# if MBRTOWC_STORES_INCOMPLETE_BUG
  ret = mbrtowc (&wc, s, n, ps);
  if (ret < (size_t) -2 && pwc != NULL)
    *pwc = wc;
# else
  ret = mbrtowc (pwc, s, n, ps);
    b478:	e1a00007 	mov	r0, r7
    b47c:	eb002d31 	bl	16948 <mbrtowc>
  if (ret < (size_t) -2 && !*pwc)
    return 0;
# endif

# if MBRTOWC_IN_C_LOCALE_MAYBE_EILSEQ
  if ((size_t) -2 <= ret && n != 0 && ! hard_locale (LC_CTYPE))
    b480:	e3550000 	cmp	r5, #0
    b484:	13700003 	cmnne	r0, #3
  ret = mbrtowc (pwc, s, n, ps);
    b488:	e1a04000 	mov	r4, r0
  if ((size_t) -2 <= ret && n != 0 && ! hard_locale (LC_CTYPE))
    b48c:	8a000002 	bhi	b49c <rpl_mbrtowc+0x3c>
      return 1;
    }
# endif

  return ret;
}
    b490:	e1a00004 	mov	r0, r4
    b494:	e28dd00c 	add	sp, sp, #12
    b498:	e8bd80f0 	pop	{r4, r5, r6, r7, pc}
  if ((size_t) -2 <= ret && n != 0 && ! hard_locale (LC_CTYPE))
    b49c:	e3a00002 	mov	r0, #2
    b4a0:	eb000ce3 	bl	e834 <hard_locale>
    b4a4:	e3500000 	cmp	r0, #0
      *pwc = uc;
    b4a8:	05d63000 	ldrbeq	r3, [r6]
      return 1;
    b4ac:	03a04001 	moveq	r4, #1
}
    b4b0:	e1a00004 	mov	r0, r4
      *pwc = uc;
    b4b4:	05873000 	streq	r3, [r7]
}
    b4b8:	e28dd00c 	add	sp, sp, #12
    b4bc:	e8bd80f0 	pop	{r4, r5, r6, r7, pc}

0000b4c0 <physmem_total>:
#define ARRAY_SIZE(a) (sizeof (a) / sizeof ((a)[0]))

/* Return the total amount of physical memory.  */
double
physmem_total (void)
{
    b4c0:	e92d4010 	push	{r4, lr}
#if defined _SC_PHYS_PAGES && defined _SC_PAGESIZE
  { /* This works on linux-gnu, kfreebsd-gnu, solaris2, and cygwin.  */
    double pages = sysconf (_SC_PHYS_PAGES);
    b4c4:	e3a0000b 	mov	r0, #11
    b4c8:	eb0050fe 	bl	1f8c8 <sysconf>
    b4cc:	e1a04000 	mov	r4, r0
    double pagesize = sysconf (_SC_PAGESIZE);
    b4d0:	e3a00008 	mov	r0, #8
    b4d4:	eb0050fb 	bl	1f8c8 <sysconf>
    if (0 <= pages && 0 <= pagesize)
    b4d8:	e1943000 	orrs	r3, r4, r0
    double pages = sysconf (_SC_PHYS_PAGES);
    b4dc:	5e074a90 	vmovpl	s15, r4
    b4e0:	5eb80be7 	vcvtpl.f64.s32	d0, s15
    double pagesize = sysconf (_SC_PAGESIZE);
    b4e4:	5e070a90 	vmovpl	s15, r0
    b4e8:	5eb87be7 	vcvtpl.f64.s32	d7, s15
      return pages * pagesize;
    b4ec:	5e200b07 	vmulpl.f64	d0, d0, d7
      }
  }
#endif

  /* Guess 64 MB.  It's probably an older host, so guess small.  */
  return 64 * 1024 * 1024;
    b4f0:	4d9f0b00 	vldrmi	d0, [pc]	@ b4f8 <physmem_total+0x38>
}
    b4f4:	e8bd8010 	pop	{r4, pc}
    b4f8:	00000000 	.word	0x00000000
    b4fc:	41900000 	.word	0x41900000

0000b500 <physmem_available>:

/* Return the amount of physical memory available.  */
double
physmem_available (void)
{
    b500:	e92d4010 	push	{r4, lr}
#if defined _SC_AVPHYS_PAGES && defined _SC_PAGESIZE
  { /* This works on linux-gnu, kfreebsd-gnu, solaris2, and cygwin.  */
    double pages = sysconf (_SC_AVPHYS_PAGES);
    b504:	e3a0000c 	mov	r0, #12
    b508:	eb0050ee 	bl	1f8c8 <sysconf>
    b50c:	e1a04000 	mov	r4, r0
    double pagesize = sysconf (_SC_PAGESIZE);
    b510:	e3a00008 	mov	r0, #8
    b514:	eb0050eb 	bl	1f8c8 <sysconf>
    if (0 <= pages && 0 <= pagesize)
    b518:	e1943000 	orrs	r3, r4, r0
    b51c:	5a00000e 	bpl	b55c <physmem_available+0x5c>
    double pages = sysconf (_SC_PHYS_PAGES);
    b520:	e3a0000b 	mov	r0, #11
    b524:	eb0050e7 	bl	1f8c8 <sysconf>
    b528:	e1a04000 	mov	r4, r0
    double pagesize = sysconf (_SC_PAGESIZE);
    b52c:	e3a00008 	mov	r0, #8
    b530:	eb0050e4 	bl	1f8c8 <sysconf>
    if (0 <= pages && 0 <= pagesize)
    b534:	e1943000 	orrs	r3, r4, r0
      }
  }
#endif

  /* Guess 25% of physical memory.  */
  return physmem_total () / 4;
    b538:	5d9f6b0e 	vldrpl	d6, [pc, #56]	@ b578 <physmem_available+0x78>
    double pages = sysconf (_SC_PHYS_PAGES);
    b53c:	5e074a90 	vmovpl	s15, r4
    b540:	5eb80be7 	vcvtpl.f64.s32	d0, s15
    double pagesize = sysconf (_SC_PAGESIZE);
    b544:	5e070a90 	vmovpl	s15, r0
    b548:	5eb87be7 	vcvtpl.f64.s32	d7, s15
      return pages * pagesize;
    b54c:	5e200b07 	vmulpl.f64	d0, d0, d7
  return physmem_total () / 4;
    b550:	5e200b06 	vmulpl.f64	d0, d0, d6
    b554:	4d9f0b09 	vldrmi	d0, [pc, #36]	@ b580 <physmem_available+0x80>
}
    b558:	e8bd8010 	pop	{r4, pc}
    double pages = sysconf (_SC_AVPHYS_PAGES);
    b55c:	ee074a90 	vmov	s15, r4
    b560:	eeb80be7 	vcvt.f64.s32	d0, s15
    double pagesize = sysconf (_SC_PAGESIZE);
    b564:	ee070a90 	vmov	s15, r0
    b568:	eeb87be7 	vcvt.f64.s32	d7, s15
      return pages * pagesize;
    b56c:	ee200b07 	vmul.f64	d0, d0, d7
    b570:	e8bd8010 	pop	{r4, pc}
    b574:	e320f000 	nop	{0}
    b578:	00000000 	.word	0x00000000
    b57c:	3fd00000 	.word	0x3fd00000
    b580:	00000000 	.word	0x00000000
    b584:	41700000 	.word	0x41700000

0000b588 <set_program_name>:
/* Set program_name, based on argv[0].
   argv0 must be a string allocated with indefinite extent, and must not be
   modified after this call.  */
void
set_program_name (const char *argv0)
{
    b588:	e92d4070 	push	{r4, r5, r6, lr}
  const char *slash;
  const char *base;

  /* Sanity check.  POSIX requires the invoking process to pass a non-NULL
     argv[0].  */
  if (argv0 == NULL)
    b58c:	e2504000 	subs	r4, r0, #0
    b590:	0a00001e 	beq	b610 <set_program_name+0x88>
      fputs ("A NULL argv[0] was passed through an exec system call.\n",
             stderr);
      abort ();
    }

  slash = strrchr (argv0, '/');
    b594:	e3a0102f 	mov	r1, #47	@ 0x2f
    b598:	eb003d60 	bl	1ab20 <strrchr>
  base = (slash != NULL ? slash + 1 : argv0);
    b59c:	e2505000 	subs	r5, r0, #0
    b5a0:	0a000014 	beq	b5f8 <set_program_name+0x70>
    b5a4:	e2856001 	add	r6, r5, #1
  if (base - argv0 >= 7 && strncmp (base - 7, "/.libs/", 7) == 0)
    b5a8:	e0463004 	sub	r3, r6, r4
    b5ac:	e3530006 	cmp	r3, #6
    b5b0:	da000010 	ble	b5f8 <set_program_name+0x70>
    b5b4:	e3081da0 	movw	r1, #36256	@ 0x8da0
    b5b8:	e3a02007 	mov	r2, #7
    b5bc:	e3401002 	movt	r1, #2
    b5c0:	e2450006 	sub	r0, r5, #6
    b5c4:	eb003cda 	bl	1a934 <strncmp>
    b5c8:	e3500000 	cmp	r0, #0
    b5cc:	1a000009 	bne	b5f8 <set_program_name+0x70>
    {
      argv0 = base;
      if (strncmp (base, "lt-", 3) == 0)
    b5d0:	e5d53001 	ldrb	r3, [r5, #1]
    b5d4:	e353006c 	cmp	r3, #108	@ 0x6c
    b5d8:	1a00000a 	bne	b608 <set_program_name+0x80>
    b5dc:	e5d63001 	ldrb	r3, [r6, #1]
    b5e0:	e3530074 	cmp	r3, #116	@ 0x74
    b5e4:	1a000007 	bne	b608 <set_program_name+0x80>
    b5e8:	e5d63002 	ldrb	r3, [r6, #2]
    b5ec:	e353002d 	cmp	r3, #45	@ 0x2d
    b5f0:	1a000004 	bne	b608 <set_program_name+0x80>
        {
          argv0 = base + 3;
    b5f4:	e2854004 	add	r4, r5, #4
         /some/hidden/place/bin/cp: `foo' and `foo' are the same file
     not
         cp: `foo' and `foo' are the same file
   */

  program_name = argv0;
    b5f8:	e30b33e4 	movw	r3, #46052	@ 0xb3e4
    b5fc:	e3403002 	movt	r3, #2
    b600:	e5834000 	str	r4, [r3]
     variable program_invocation_name, not program_name.  So set this variable
     as well.  */
#if HAVE_DECL_PROGRAM_INVOCATION_NAME
  program_invocation_name = (char *) argv0;
#endif
}
    b604:	e8bd8070 	pop	{r4, r5, r6, pc}
      argv0 = base;
    b608:	e1a04006 	mov	r4, r6
    b60c:	eafffff9 	b	b5f8 <set_program_name+0x70>
             stderr);
    b610:	e30b31e8 	movw	r3, #45544	@ 0xb1e8
      fputs ("A NULL argv[0] was passed through an exec system call.\n",
    b614:	e3080d68 	movw	r0, #36200	@ 0x8d68
             stderr);
    b618:	e3403002 	movt	r3, #2
      fputs ("A NULL argv[0] was passed through an exec system call.\n",
    b61c:	e3a02037 	mov	r2, #55	@ 0x37
             stderr);
    b620:	e5933000 	ldr	r3, [r3]
      fputs ("A NULL argv[0] was passed through an exec system call.\n",
    b624:	e3a01001 	mov	r1, #1
    b628:	e3400002 	movt	r0, #2
    b62c:	e593300c 	ldr	r3, [r3, #12]
    b630:	eb0035f5 	bl	18e0c <fwrite>
      abort ();
    b634:	eb002c34 	bl	1670c <abort>

0000b638 <proper_name_lite>:
/* Return the localization of the name spelled NAME_ASCII in ASCII,
   and NAME_UTF8 in UTF-8.  */

char const *
proper_name_lite (char const *name_ascii, char const *name_utf8)
{
    b638:	e92d4070 	push	{r4, r5, r6, lr}
    b63c:	e1a04001 	mov	r4, r1
    b640:	e1a05000 	mov	r5, r0
  char const *translation = gettext (name_ascii);
  return (translation != name_ascii ? translation
          : c_strcasecmp (locale_charset (), "UTF-8") == 0 ? name_utf8
    b644:	eb000c91 	bl	e890 <locale_charset>
    b648:	e3081da8 	movw	r1, #36264	@ 0x8da8
    b64c:	e3401002 	movt	r1, #2
    b650:	eb000c3b 	bl	e744 <c_strcasecmp>
          : name_ascii);
}
    b654:	e3500000 	cmp	r0, #0
    b658:	11a00005 	movne	r0, r5
    b65c:	01a00004 	moveq	r0, r4
    b660:	e8bd8070 	pop	{r4, r5, r6, pc}

0000b664 <gettext_quote>:
   has one; otherwise, return either it or "\"", depending on S.

   S is either clocale_quoting_style or locale_quoting_style.  */
static char const *
gettext_quote (char const *msgid, enum quoting_style s)
{
    b664:	e92d4070 	push	{r4, r5, r6, lr}
    b668:	e1a05000 	mov	r5, r0
    b66c:	e1a04001 	mov	r4, r1
        BIG5-HKSCS   0xA1 0xA5            EUC-CN       0xA1 0xAE
        GBK          0xA1 0xAE            Georgian-PS  0x91
        PT154        0x91

     None of these is still in wide use; using iconv is overkill.  */
  locale_code = locale_charset ();
    b670:	eb000c86 	bl	e890 <locale_charset>
}

static inline int
strcaseeq0 (const char *s1, const char *s2, char s20, char s21, char s22, char s23, char s24, char s25, char s26, char s27, char s28)
{
  if (CASEEQ (s1[0], s20))
    b674:	e5d02000 	ldrb	r2, [r0]
    b678:	e3c22020 	bic	r2, r2, #32
    b67c:	e3520055 	cmp	r2, #85	@ 0x55
    b680:	1a000018 	bne	b6e8 <gettext_quote+0x84>
  if (CASEEQ (s1[1], s21))
    b684:	e5d02001 	ldrb	r2, [r0, #1]
    b688:	e3c22020 	bic	r2, r2, #32
    b68c:	e3520054 	cmp	r2, #84	@ 0x54
    b690:	1a00001d 	bne	b70c <gettext_quote+0xa8>
  if (CASEEQ (s1[2], s22))
    b694:	e5d02002 	ldrb	r2, [r0, #2]
    b698:	e3c22020 	bic	r2, r2, #32
    b69c:	e3520046 	cmp	r2, #70	@ 0x46
    b6a0:	1a000019 	bne	b70c <gettext_quote+0xa8>
  if (CASEEQ (s1[3], s23))
    b6a4:	e5d02003 	ldrb	r2, [r0, #3]
    b6a8:	e352002d 	cmp	r2, #45	@ 0x2d
    b6ac:	1a000016 	bne	b70c <gettext_quote+0xa8>
  if (CASEEQ (s1[4], s24))
    b6b0:	e5d02004 	ldrb	r2, [r0, #4]
    b6b4:	e3520038 	cmp	r2, #56	@ 0x38
    b6b8:	1a000013 	bne	b70c <gettext_quote+0xa8>
  if (CASEEQ (s1[5], s25))
    b6bc:	e5d03005 	ldrb	r3, [r0, #5]
    b6c0:	e3530000 	cmp	r3, #0
    b6c4:	1a000010 	bne	b70c <gettext_quote+0xa8>
  if (STRCASEEQ (locale_code, "UTF-8", 'U','T','F','-','8',0,0,0,0))
    return msgid[0] == '`' ? "\xe2\x80\x98": "\xe2\x80\x99";
    b6c8:	e5d52000 	ldrb	r2, [r5]
    b6cc:	e3083dc4 	movw	r3, #36292	@ 0x8dc4
    b6d0:	e3403002 	movt	r3, #2
    b6d4:	e3080db4 	movw	r0, #36276	@ 0x8db4
    b6d8:	e3400002 	movt	r0, #2
    b6dc:	e3520060 	cmp	r2, #96	@ 0x60
    b6e0:	01a00003 	moveq	r0, r3
    b6e4:	e8bd8070 	pop	{r4, r5, r6, pc}
  if (CASEEQ (s1[0], s20))
    b6e8:	e3520047 	cmp	r2, #71	@ 0x47
    b6ec:	1a000006 	bne	b70c <gettext_quote+0xa8>
  if (CASEEQ (s1[1], s21))
    b6f0:	e5d02001 	ldrb	r2, [r0, #1]
    b6f4:	e3c22020 	bic	r2, r2, #32
    b6f8:	e3520042 	cmp	r2, #66	@ 0x42
    b6fc:	1a000002 	bne	b70c <gettext_quote+0xa8>
  if (CASEEQ (s1[2], s22))
    b700:	e5d02002 	ldrb	r2, [r0, #2]
    b704:	e3520031 	cmp	r2, #49	@ 0x31
    b708:	0a000006 	beq	b728 <gettext_quote+0xc4>
  if (STRCASEEQ (locale_code, "GB18030", 'G','B','1','8','0','3','0',0,0))
    return msgid[0] == '`' ? "\xa1\ae": "\xa1\xaf";

  return (s == clocale_quoting_style ? "\"" : "'");
    b70c:	e3083dbc 	movw	r3, #36284	@ 0x8dbc
    b710:	e3540009 	cmp	r4, #9
    b714:	e3403002 	movt	r3, #2
    b718:	e3080db0 	movw	r0, #36272	@ 0x8db0
    b71c:	e3400002 	movt	r0, #2
    b720:	01a00003 	moveq	r0, r3
}
    b724:	e8bd8070 	pop	{r4, r5, r6, pc}
  if (CASEEQ (s1[3], s23))
    b728:	e5d02003 	ldrb	r2, [r0, #3]
    b72c:	e3520038 	cmp	r2, #56	@ 0x38
    b730:	1afffff5 	bne	b70c <gettext_quote+0xa8>
  if (CASEEQ (s1[4], s24))
    b734:	e5d02004 	ldrb	r2, [r0, #4]
    b738:	e3520030 	cmp	r2, #48	@ 0x30
    b73c:	1afffff2 	bne	b70c <gettext_quote+0xa8>
  if (CASEEQ (s1[5], s25))
    b740:	e5d02005 	ldrb	r2, [r0, #5]
    b744:	e3520033 	cmp	r2, #51	@ 0x33
    b748:	1affffef 	bne	b70c <gettext_quote+0xa8>
  if (CASEEQ (s1[6], s26))
    b74c:	e5d02006 	ldrb	r2, [r0, #6]
    b750:	e3520030 	cmp	r2, #48	@ 0x30
    b754:	1affffec 	bne	b70c <gettext_quote+0xa8>
  if (CASEEQ (s1[7], s27))
    b758:	e5d03007 	ldrb	r3, [r0, #7]
    b75c:	e3530000 	cmp	r3, #0
    b760:	1affffe9 	bne	b70c <gettext_quote+0xa8>
    return msgid[0] == '`' ? "\xa1\ae": "\xa1\xaf";
    b764:	e5d52000 	ldrb	r2, [r5]
    b768:	e3083dc0 	movw	r3, #36288	@ 0x8dc0
    b76c:	e3403002 	movt	r3, #2
    b770:	e3080db8 	movw	r0, #36280	@ 0x8db8
    b774:	e3400002 	movt	r0, #2
    b778:	e3520060 	cmp	r2, #96	@ 0x60
    b77c:	01a00003 	moveq	r0, r3
    b780:	e8bd8070 	pop	{r4, r5, r6, pc}

0000b784 <quotearg_buffer_restyled>:
                          char const *arg, size_t argsize,
                          enum quoting_style quoting_style, int flags,
                          unsigned int const *quote_these_too,
                          char const *left_quote,
                          char const *right_quote)
{
    b784:	e92d4ff0 	push	{r4, r5, r6, r7, r8, r9, sl, fp, lr}
    b788:	e24dd06c 	sub	sp, sp, #108	@ 0x6c
    b78c:	e58d2004 	str	r2, [sp, #4]
            goto force_outer_quoting_style;
          is_right_quote = true;
        }

      c = arg[i];
      switch (c)
    b790:	e30f2f82 	movw	r2, #65410	@ 0xff82
    b794:	e340207f 	movt	r2, #127	@ 0x7f
    b798:	e58d203c 	str	r2, [sp, #60]	@ 0x3c
    b79c:	e30521c1 	movw	r2, #20929	@ 0x51c1
    b7a0:	e3432800 	movt	r2, #14336	@ 0x3800
{
    b7a4:	e5dd8090 	ldrb	r8, [sp, #144]	@ 0x90
    b7a8:	e58d2054 	str	r2, [sp, #84]	@ 0x54
    b7ac:	e59d2094 	ldr	r2, [sp, #148]	@ 0x94
    b7b0:	e59d909c 	ldr	r9, [sp, #156]	@ 0x9c
    b7b4:	e1a0a008 	mov	sl, r8
    b7b8:	e58d0010 	str	r0, [sp, #16]
    b7bc:	e2026002 	and	r6, r2, #2
    b7c0:	e58d3000 	str	r3, [sp]
    b7c4:	e58d6038 	str	r6, [sp, #56]	@ 0x38
    b7c8:	e1a06001 	mov	r6, r1
  bool unibyte_locale = MB_CUR_MAX == 1;
    b7cc:	eb003e3f 	bl	1b0d0 <__locale_mb_cur_max>
  bool elide_outer_quotes = (flags & QA_ELIDE_OUTER_QUOTES) != 0;
    b7d0:	e59d3038 	ldr	r3, [sp, #56]	@ 0x38
  bool unibyte_locale = MB_CUR_MAX == 1;
    b7d4:	e58d0040 	str	r0, [sp, #64]	@ 0x40
  bool elide_outer_quotes = (flags & QA_ELIDE_OUTER_QUOTES) != 0;
    b7d8:	e2533000 	subs	r3, r3, #0
    b7dc:	13a03001 	movne	r3, #1
    b7e0:	e58d3008 	str	r3, [sp, #8]
  switch (quoting_style)
    b7e4:	e35a000a 	cmp	sl, #10
    b7e8:	979ff10a 	ldrls	pc, [pc, sl, lsl #2]
    b7ec:	ea000521 	b	cc78 <quotearg_buffer_restyled+0x14f4>
    b7f0:	0000bd00 	.word	0x0000bd00
    b7f4:	0000bd2c 	.word	0x0000bd2c
    b7f8:	0000cbac 	.word	0x0000cbac
    b7fc:	0000bda0 	.word	0x0000bda0
    b800:	0000bc7c 	.word	0x0000bc7c
    b804:	0000bc28 	.word	0x0000bc28
    b808:	0000bd68 	.word	0x0000bd68
    b80c:	0000bcd4 	.word	0x0000bcd4
    b810:	0000b81c 	.word	0x0000b81c
    b814:	0000b81c 	.word	0x0000b81c
    b818:	0000b81c 	.word	0x0000b81c
        if (quoting_style != custom_quoting_style)
    b81c:	e35a000a 	cmp	sl, #10
    b820:	0a000009 	beq	b84c <quotearg_buffer_restyled+0xc8>
            left_quote = gettext_quote (N_("`"), quoting_style);
    b824:	e3080dc8 	movw	r0, #36296	@ 0x8dc8
    b828:	e1a0100a 	mov	r1, sl
    b82c:	e3400002 	movt	r0, #2
    b830:	ebffff8b 	bl	b664 <gettext_quote>
    b834:	e1a09000 	mov	r9, r0
            right_quote = gettext_quote (N_("'"), quoting_style);
    b838:	e3080db0 	movw	r0, #36272	@ 0x8db0
    b83c:	e3400002 	movt	r0, #2
    b840:	e1a0100a 	mov	r1, sl
    b844:	ebffff86 	bl	b664 <gettext_quote>
    b848:	e58d00a0 	str	r0, [sp, #160]	@ 0xa0
        if (!elide_outer_quotes)
    b84c:	e59d3038 	ldr	r3, [sp, #56]	@ 0x38
    b850:	e3530000 	cmp	r3, #0
    b854:	13a0b000 	movne	fp, #0
    b858:	0a00045f 	beq	c9dc <quotearg_buffer_restyled+0x1258>
        quote_string_len = strlen (quote_string);
    b85c:	e59d00a0 	ldr	r0, [sp, #160]	@ 0xa0
    b860:	fa005306 	blx	20480 <strlen>
        quote_string = right_quote;
    b864:	e59d10a0 	ldr	r1, [sp, #160]	@ 0xa0
      break;
    b868:	e3a03000 	mov	r3, #0
    b86c:	e3a02001 	mov	r2, #1
        quote_string_len = strlen (quote_string);
    b870:	e58d001c 	str	r0, [sp, #28]
      break;
    b874:	e58d302c 	str	r3, [sp, #44]	@ 0x2c
    b878:	e58d200c 	str	r2, [sp, #12]
        quote_string = right_quote;
    b87c:	e58d1028 	str	r1, [sp, #40]	@ 0x28
      break;
    b880:	e58d3014 	str	r3, [sp, #20]
    b884:	e58d3034 	str	r3, [sp, #52]	@ 0x34
        backslash_escapes = true;
    b888:	e58d2018 	str	r2, [sp, #24]
      switch (c)
    b88c:	e3a03075 	mov	r3, #117	@ 0x75
  for (i = 0;  ! (argsize == SIZE_MAX ? arg[i] == '\0' : i == argsize);  i++)
    b890:	e3a05000 	mov	r5, #0
      switch (c)
    b894:	e3403780 	movt	r3, #1920	@ 0x780
    b898:	e58d3030 	str	r3, [sp, #48]	@ 0x30
  for (i = 0;  ! (argsize == SIZE_MAX ? arg[i] == '\0' : i == argsize);  i++)
    b89c:	e59d3000 	ldr	r3, [sp]
    b8a0:	e3730001 	cmn	r3, #1
    b8a4:	0a000088 	beq	bacc <quotearg_buffer_restyled+0x348>
    b8a8:	e59d3000 	ldr	r3, [sp]
    b8ac:	e0534005 	subs	r4, r3, r5
    b8b0:	13a04001 	movne	r4, #1
    b8b4:	e3540000 	cmp	r4, #0
    b8b8:	0a0002e5 	beq	c454 <quotearg_buffer_restyled+0xcd0>
    b8bc:	e59d3004 	ldr	r3, [sp, #4]
          && quoting_style != shell_always_quoting_style
    b8c0:	e59d8018 	ldr	r8, [sp, #24]
  for (i = 0;  ! (argsize == SIZE_MAX ? arg[i] == '\0' : i == argsize);  i++)
    b8c4:	e0833005 	add	r3, r3, r5
    b8c8:	e58d3020 	str	r3, [sp, #32]
          && quoting_style != shell_always_quoting_style
    b8cc:	e35a0002 	cmp	sl, #2
    b8d0:	03a08000 	moveq	r8, #0
    b8d4:	12088001 	andne	r8, r8, #1
          && quote_string_len
    b8d8:	e59d301c 	ldr	r3, [sp, #28]
    b8dc:	e3530000 	cmp	r3, #0
    b8e0:	03a07000 	moveq	r7, #0
    b8e4:	12087001 	andne	r7, r8, #1
    b8e8:	e3570000 	cmp	r7, #0
    b8ec:	1a000181 	bne	bef8 <quotearg_buffer_restyled+0x774>
      c = arg[i];
    b8f0:	e59d3004 	ldr	r3, [sp, #4]
    b8f4:	e7d31005 	ldrb	r1, [r3, r5]
      switch (c)
    b8f8:	e3510023 	cmp	r1, #35	@ 0x23
    b8fc:	8a000135 	bhi	bdd8 <quotearg_buffer_restyled+0x654>
    b900:	e3510023 	cmp	r1, #35	@ 0x23
    b904:	979ff101 	ldrls	pc, [pc, r1, lsl #2]
    b908:	ea000024 	b	b9a0 <quotearg_buffer_restyled+0x21c>
    b90c:	0000bbd0 	.word	0x0000bbd0
    b910:	0000b9a0 	.word	0x0000b9a0
    b914:	0000b9a0 	.word	0x0000b9a0
    b918:	0000b9a0 	.word	0x0000b9a0
    b91c:	0000b9a0 	.word	0x0000b9a0
    b920:	0000b9a0 	.word	0x0000b9a0
    b924:	0000b9a0 	.word	0x0000b9a0
    b928:	0000bbbc 	.word	0x0000bbbc
    b92c:	0000bba8 	.word	0x0000bba8
    b930:	0000bbf8 	.word	0x0000bbf8
    b934:	0000bc20 	.word	0x0000bc20
    b938:	0000bb94 	.word	0x0000bb94
    b93c:	0000bb54 	.word	0x0000bb54
    b940:	0000bc18 	.word	0x0000bc18
    b944:	0000b9a0 	.word	0x0000b9a0
    b948:	0000b9a0 	.word	0x0000b9a0
    b94c:	0000b9a0 	.word	0x0000b9a0
    b950:	0000b9a0 	.word	0x0000b9a0
    b954:	0000b9a0 	.word	0x0000b9a0
    b958:	0000b9a0 	.word	0x0000b9a0
    b95c:	0000b9a0 	.word	0x0000b9a0
    b960:	0000b9a0 	.word	0x0000b9a0
    b964:	0000b9a0 	.word	0x0000b9a0
    b968:	0000b9a0 	.word	0x0000b9a0
    b96c:	0000b9a0 	.word	0x0000b9a0
    b970:	0000b9a0 	.word	0x0000b9a0
    b974:	0000b9a0 	.word	0x0000b9a0
    b978:	0000b9a0 	.word	0x0000b9a0
    b97c:	0000b9a0 	.word	0x0000b9a0
    b980:	0000b9a0 	.word	0x0000b9a0
    b984:	0000b9a0 	.word	0x0000b9a0
    b988:	0000b9a0 	.word	0x0000b9a0
    b98c:	0000bae4 	.word	0x0000bae4
    b990:	0000bae0 	.word	0x0000bae0
    b994:	0000bae0 	.word	0x0000bae0
    b998:	0000bb44 	.word	0x0000bb44
    b99c:	e3a07000 	mov	r7, #0
            /* Length of multibyte sequence found so far.  */
            size_t m;

            bool printable;

            if (unibyte_locale)
    b9a0:	e59d3040 	ldr	r3, [sp, #64]	@ 0x40
    b9a4:	e3530001 	cmp	r3, #1
    b9a8:	1a0002ea 	bne	c558 <quotearg_buffer_restyled+0xdd4>
              {
                m = 1;
                printable = isprint (c) != 0;
    b9ac:	e59f2fc4 	ldr	r2, [pc, #4036]	@ c978 <quotearg_buffer_restyled+0x11f4>
    b9b0:	e7d22001 	ldrb	r2, [r2, r1]
    b9b4:	e2022097 	and	r2, r2, #151	@ 0x97
    b9b8:	e3520000 	cmp	r2, #0
                m = 1;
    b9bc:	e1a02003 	mov	r2, r3
                  }
              }

            c_and_shell_quote_compat = printable;

            if (1 < m || (backslash_escapes && ! printable))
    b9c0:	e59d3018 	ldr	r3, [sp, #24]
                printable = isprint (c) != 0;
    b9c4:	13a04001 	movne	r4, #1
    b9c8:	03a04000 	moveq	r4, #0
            if (1 < m || (backslash_escapes && ! printable))
    b9cc:	13a0c000 	movne	ip, #0
    b9d0:	0203c001 	andeq	ip, r3, #1
    b9d4:	e35c0000 	cmp	ip, #0
    b9d8:	1a0003b8 	bne	c8c0 <quotearg_buffer_restyled+0x113c>
                goto store_c;
              }
          }
        }

      if (! (((backslash_escapes && quoting_style != shell_always_quoting_style)
    b9dc:	e59d3008 	ldr	r3, [sp, #8]
    b9e0:	e1880003 	orr	r0, r8, r3
              || elide_outer_quotes)
    b9e4:	e21000ff 	ands	r0, r0, #255	@ 0xff
    b9e8:	0a00000a 	beq	ba18 <quotearg_buffer_restyled+0x294>
    b9ec:	e3a00000 	mov	r0, #0
             && quote_these_too
    b9f0:	e59d3098 	ldr	r3, [sp, #152]	@ 0x98
    b9f4:	e3530000 	cmp	r3, #0
    b9f8:	0a000006 	beq	ba18 <quotearg_buffer_restyled+0x294>
             && quote_these_too[c / INT_BITS] >> (c % INT_BITS) & 1)
    b9fc:	e59d2098 	ldr	r2, [sp, #152]	@ 0x98
    ba00:	e7e732d1 	ubfx	r3, r1, #5, #8
    ba04:	e7923103 	ldr	r3, [r2, r3, lsl #2]
    ba08:	e201201f 	and	r2, r1, #31
    ba0c:	e1a03233 	lsr	r3, r3, r2
      if (! (((backslash_escapes && quoting_style != shell_always_quoting_style)
    ba10:	e3130001 	tst	r3, #1
    ba14:	1a000001 	bne	ba20 <quotearg_buffer_restyled+0x29c>
          && !is_right_quote)
    ba18:	e3570000 	cmp	r7, #0
    ba1c:	0a000121 	beq	bea8 <quotearg_buffer_restyled+0x724>
              START_ESC ();
    ba20:	e24a3002 	sub	r3, sl, #2
    ba24:	e16f3f13 	clz	r3, r3
    ba28:	e1a032a3 	lsr	r3, r3, #5
        goto store_c;

    store_escape:
      START_ESC ();
    ba2c:	e59d2008 	ldr	r2, [sp, #8]
    ba30:	e3520000 	cmp	r2, #0
    ba34:	1a000052 	bne	bb84 <quotearg_buffer_restyled+0x400>
    ba38:	e59d2014 	ldr	r2, [sp, #20]
    ba3c:	e2222001 	eor	r2, r2, #1
    ba40:	e0133002 	ands	r3, r3, r2
    ba44:	0a00000f 	beq	ba88 <quotearg_buffer_restyled+0x304>
    ba48:	e156000b 	cmp	r6, fp
    ba4c:	e58d3014 	str	r3, [sp, #20]
    ba50:	859d0010 	ldrhi	r0, [sp, #16]
    ba54:	83a02027 	movhi	r2, #39	@ 0x27
    ba58:	87c0200b 	strbhi	r2, [r0, fp]
    ba5c:	e28b2001 	add	r2, fp, #1
    ba60:	e1560002 	cmp	r6, r2
    ba64:	859dc010 	ldrhi	ip, [sp, #16]
    ba68:	83a00024 	movhi	r0, #36	@ 0x24
    ba6c:	87cc0002 	strbhi	r0, [ip, r2]
    ba70:	e28b2002 	add	r2, fp, #2
    ba74:	e1560002 	cmp	r6, r2
    ba78:	e28bb003 	add	fp, fp, #3
    ba7c:	859dc010 	ldrhi	ip, [sp, #16]
    ba80:	83a00027 	movhi	r0, #39	@ 0x27
    ba84:	87cc0002 	strbhi	r0, [ip, r2]
    ba88:	e15b0006 	cmp	fp, r6
  for (i = 0;  ! (argsize == SIZE_MAX ? arg[i] == '\0' : i == argsize);  i++)
    ba8c:	e2855001 	add	r5, r5, #1
      START_ESC ();
    ba90:	359d2010 	ldrcc	r2, [sp, #16]
    ba94:	33a0305c 	movcc	r3, #92	@ 0x5c
    ba98:	37c2300b 	strbcc	r3, [r2, fp]
    ba9c:	e28bb001 	add	fp, fp, #1

    store_c:
      END_ESC ();
      STORE (c);
    baa0:	e15b0006 	cmp	fp, r6
    baa4:	359d3010 	ldrcc	r3, [sp, #16]
    baa8:	37c3100b 	strbcc	r1, [r3, fp]

      if (! c_and_shell_quote_compat)
        all_c_and_shell_quote_compat = false;
    baac:	e3540000 	cmp	r4, #0
    bab0:	e59d300c 	ldr	r3, [sp, #12]
    bab4:	03a03000 	moveq	r3, #0
      STORE (c);
    bab8:	e28bb001 	add	fp, fp, #1
        all_c_and_shell_quote_compat = false;
    babc:	e58d300c 	str	r3, [sp, #12]
  for (i = 0;  ! (argsize == SIZE_MAX ? arg[i] == '\0' : i == argsize);  i++)
    bac0:	e59d3000 	ldr	r3, [sp]
    bac4:	e3730001 	cmn	r3, #1
    bac8:	1affff76 	bne	b8a8 <quotearg_buffer_restyled+0x124>
    bacc:	e59d3004 	ldr	r3, [sp, #4]
    bad0:	e7d34005 	ldrb	r4, [r3, r5]
    bad4:	e2544000 	subs	r4, r4, #0
    bad8:	13a04001 	movne	r4, #1
    badc:	eaffff74 	b	b8b4 <quotearg_buffer_restyled+0x130>
      switch (c)
    bae0:	e3a04000 	mov	r4, #0
          if (quoting_style == shell_always_quoting_style
    bae4:	e59d3008 	ldr	r3, [sp, #8]
    bae8:	e35a0002 	cmp	sl, #2
    baec:	13a03000 	movne	r3, #0
    baf0:	02033001 	andeq	r3, r3, #1
    baf4:	e3530000 	cmp	r3, #0
    baf8:	0affffb7 	beq	b9dc <quotearg_buffer_restyled+0x258>
    }

  if (len == 0 && quoting_style == shell_always_quoting_style
      && elide_outer_quotes)
    bafc:	e3a0a002 	mov	sl, #2

 force_outer_quoting_style:
  /* Don't reuse quote_these_too, since the addition of outer quotes
     sufficiently quotes the specified characters.  */
  if (quoting_style == shell_always_quoting_style && backslash_escapes)
    quoting_style = shell_escape_always_quoting_style;
    bb00:	e59d3018 	ldr	r3, [sp, #24]
    bb04:	e3530000 	cmp	r3, #0
    bb08:	13a0a004 	movne	sl, #4
  return quotearg_buffer_restyled (buffer, buffersize, arg, argsize,
    bb0c:	e59d3094 	ldr	r3, [sp, #148]	@ 0x94
    bb10:	e3c33002 	bic	r3, r3, #2
    bb14:	e58d3094 	str	r3, [sp, #148]	@ 0x94
    bb18:	e3a03000 	mov	r3, #0
    bb1c:	e58d3098 	str	r3, [sp, #152]	@ 0x98
    bb20:	e58d3038 	str	r3, [sp, #56]	@ 0x38
    bb24:	eaffff28 	b	b7cc <quotearg_buffer_restyled+0x48>
      switch (c)
    bb28:	e3a07000 	mov	r7, #0
          if (! (argsize == SIZE_MAX ? arg[1] == '\0' : argsize == 1))
    bb2c:	e59d3000 	ldr	r3, [sp]
    bb30:	e3730001 	cmn	r3, #1
    bb34:	0a000261 	beq	c4c0 <quotearg_buffer_restyled+0xd3c>
    bb38:	e59d3000 	ldr	r3, [sp]
    bb3c:	e3530001 	cmp	r3, #1
    bb40:	1a000001 	bne	bb4c <quotearg_buffer_restyled+0x3c8>
          if (i != 0)
    bb44:	e3550000 	cmp	r5, #0
    bb48:	0affffe5 	beq	bae4 <quotearg_buffer_restyled+0x360>
      bool c_and_shell_quote_compat = false;
    bb4c:	e3a04000 	mov	r4, #0
                    break;
    bb50:	eaffffa1 	b	b9dc <quotearg_buffer_restyled+0x258>
              START_ESC ();
    bb54:	e24a3002 	sub	r3, sl, #2
        case '\f': esc = 'f'; goto c_escape;
    bb58:	e3a02066 	mov	r2, #102	@ 0x66
              START_ESC ();
    bb5c:	e16f3f13 	clz	r3, r3
    bb60:	e1a032a3 	lsr	r3, r3, #5
          if (backslash_escapes)
    bb64:	e59d0018 	ldr	r0, [sp, #24]
    bb68:	e3500000 	cmp	r0, #0
    bb6c:	0afffff6 	beq	bb4c <quotearg_buffer_restyled+0x3c8>
              c = esc;
    bb70:	e1a01002 	mov	r1, r2
      START_ESC ();
    bb74:	e59d2008 	ldr	r2, [sp, #8]
      bool c_and_shell_quote_compat = false;
    bb78:	e3a04000 	mov	r4, #0
      START_ESC ();
    bb7c:	e3520000 	cmp	r2, #0
    bb80:	0affffac 	beq	ba38 <quotearg_buffer_restyled+0x2b4>
  if (quoting_style == shell_always_quoting_style && backslash_escapes)
    bb84:	e59d2018 	ldr	r2, [sp, #24]
    bb88:	e0022003 	and	r2, r2, r3
    bb8c:	e58d2018 	str	r2, [sp, #24]
    bb90:	eaffffda 	b	bb00 <quotearg_buffer_restyled+0x37c>
              START_ESC ();
    bb94:	e24a3002 	sub	r3, sl, #2
        case '\v': esc = 'v'; goto c_escape;
    bb98:	e3a02076 	mov	r2, #118	@ 0x76
              START_ESC ();
    bb9c:	e16f3f13 	clz	r3, r3
    bba0:	e1a032a3 	lsr	r3, r3, #5
        case '\v': esc = 'v'; goto c_escape;
    bba4:	eaffffee 	b	bb64 <quotearg_buffer_restyled+0x3e0>
              START_ESC ();
    bba8:	e24a3002 	sub	r3, sl, #2
        case '\b': esc = 'b'; goto c_escape;
    bbac:	e3a02062 	mov	r2, #98	@ 0x62
              START_ESC ();
    bbb0:	e16f3f13 	clz	r3, r3
    bbb4:	e1a032a3 	lsr	r3, r3, #5
        case '\b': esc = 'b'; goto c_escape;
    bbb8:	eaffffe9 	b	bb64 <quotearg_buffer_restyled+0x3e0>
              START_ESC ();
    bbbc:	e24a3002 	sub	r3, sl, #2
        case '\a': esc = 'a'; goto c_escape;
    bbc0:	e3a02061 	mov	r2, #97	@ 0x61
              START_ESC ();
    bbc4:	e16f3f13 	clz	r3, r3
    bbc8:	e1a032a3 	lsr	r3, r3, #5
    bbcc:	eaffffe4 	b	bb64 <quotearg_buffer_restyled+0x3e0>
          if (backslash_escapes)
    bbd0:	e59d3018 	ldr	r3, [sp, #24]
    bbd4:	e3530000 	cmp	r3, #0
    bbd8:	1a00016b 	bne	c18c <quotearg_buffer_restyled+0xa08>
          else if (flags & QA_ELIDE_NULL_BYTES)
    bbdc:	e59d3094 	ldr	r3, [sp, #148]	@ 0x94
    bbe0:	e3130001 	tst	r3, #1
                  && i + 1 < argsize && '0' <= arg[i + 1] && arg[i + 1] <= '9')
    bbe4:	12855001 	addne	r5, r5, #1
          else if (flags & QA_ELIDE_NULL_BYTES)
    bbe8:	1affff2b 	bne	b89c <quotearg_buffer_restyled+0x118>
    bbec:	e59d4018 	ldr	r4, [sp, #24]
    bbf0:	e1a07004 	mov	r7, r4
    bbf4:	eaffff78 	b	b9dc <quotearg_buffer_restyled+0x258>
        case '\t': esc = 't'; goto c_and_shell_escape;
    bbf8:	e3a02074 	mov	r2, #116	@ 0x74
          if (quoting_style == shell_always_quoting_style
    bbfc:	e24a3002 	sub	r3, sl, #2
    bc00:	e59d0008 	ldr	r0, [sp, #8]
    bc04:	e16f3f13 	clz	r3, r3
    bc08:	e1a032a3 	lsr	r3, r3, #5
    bc0c:	e0137000 	ands	r7, r3, r0
    bc10:	0affffd3 	beq	bb64 <quotearg_buffer_restyled+0x3e0>
    bc14:	eaffffb8 	b	bafc <quotearg_buffer_restyled+0x378>
        case '\r': esc = 'r'; goto c_and_shell_escape;
    bc18:	e3a02072 	mov	r2, #114	@ 0x72
    bc1c:	eafffff6 	b	bbfc <quotearg_buffer_restyled+0x478>
      switch (c)
    bc20:	e3a0206e 	mov	r2, #110	@ 0x6e
    bc24:	eafffff4 	b	bbfc <quotearg_buffer_restyled+0x478>
      if (!elide_outer_quotes)
    bc28:	e59d2038 	ldr	r2, [sp, #56]	@ 0x38
    bc2c:	e3520000 	cmp	r2, #0
    bc30:	1a000399 	bne	ca9c <quotearg_buffer_restyled+0x1318>
        STORE ('"');
    bc34:	e3560000 	cmp	r6, #0
    bc38:	0a00034f 	beq	c97c <quotearg_buffer_restyled+0x11f8>
    bc3c:	e59d0010 	ldr	r0, [sp, #16]
    bc40:	e3a03022 	mov	r3, #34	@ 0x22
    bc44:	e3a01001 	mov	r1, #1
    bc48:	e58d202c 	str	r2, [sp, #44]	@ 0x2c
    bc4c:	e1a0b001 	mov	fp, r1
    bc50:	e58d100c 	str	r1, [sp, #12]
    bc54:	e5c03000 	strb	r3, [r0]
      quote_string = "\"";
    bc58:	e3083dbc 	movw	r3, #36284	@ 0x8dbc
    bc5c:	e3403002 	movt	r3, #2
        STORE ('"');
    bc60:	e58d2014 	str	r2, [sp, #20]
      quote_string = "\"";
    bc64:	e58d3028 	str	r3, [sp, #40]	@ 0x28
        STORE ('"');
    bc68:	e58d2034 	str	r2, [sp, #52]	@ 0x34
    bc6c:	e58d2008 	str	r2, [sp, #8]
      backslash_escapes = true;
    bc70:	e58d1018 	str	r1, [sp, #24]
      quote_string_len = 1;
    bc74:	e58d101c 	str	r1, [sp, #28]
    bc78:	eaffff03 	b	b88c <quotearg_buffer_restyled+0x108>
      if (!elide_outer_quotes)
    bc7c:	e59d3038 	ldr	r3, [sp, #56]	@ 0x38
    bc80:	e3530000 	cmp	r3, #0
    bc84:	1a0003d6 	bne	cbe4 <quotearg_buffer_restyled+0x1460>
    bc88:	e3a02001 	mov	r2, #1
    bc8c:	e58d302c 	str	r3, [sp, #44]	@ 0x2c
    bc90:	e58d200c 	str	r2, [sp, #12]
    bc94:	e58d3014 	str	r3, [sp, #20]
    bc98:	e58d3034 	str	r3, [sp, #52]	@ 0x34
        backslash_escapes = true;
    bc9c:	e58d2018 	str	r2, [sp, #24]
      quote_string = "'";
    bca0:	e3083db0 	movw	r3, #36272	@ 0x8db0
        STORE ('\'');
    bca4:	e3560000 	cmp	r6, #0
      quote_string = "'";
    bca8:	e3403002 	movt	r3, #2
        STORE ('\'');
    bcac:	e3a0b001 	mov	fp, #1
      quote_string = "'";
    bcb0:	e58d3028 	str	r3, [sp, #40]	@ 0x28
    bcb4:	e3a03000 	mov	r3, #0
      quoting_style = shell_always_quoting_style;
    bcb8:	e3a0a002 	mov	sl, #2
      quote_string_len = 1;
    bcbc:	e58db01c 	str	fp, [sp, #28]
    bcc0:	e58d3008 	str	r3, [sp, #8]
        STORE ('\'');
    bcc4:	159d2010 	ldrne	r2, [sp, #16]
    bcc8:	13a03027 	movne	r3, #39	@ 0x27
    bccc:	15c23000 	strbne	r3, [r2]
    bcd0:	eafffeed 	b	b88c <quotearg_buffer_restyled+0x108>
  switch (quoting_style)
    bcd4:	e3a03000 	mov	r3, #0
    bcd8:	e3a02001 	mov	r2, #1
    bcdc:	e1a0b003 	mov	fp, r3
    bce0:	e58d302c 	str	r3, [sp, #44]	@ 0x2c
    bce4:	e58d200c 	str	r2, [sp, #12]
    bce8:	e58d3014 	str	r3, [sp, #20]
    bcec:	e58d3034 	str	r3, [sp, #52]	@ 0x34
      elide_outer_quotes = false;
    bcf0:	e58d3008 	str	r3, [sp, #8]
  switch (quoting_style)
    bcf4:	e1cd21f8 	strd	r2, [sp, #24]
    bcf8:	e58d3028 	str	r3, [sp, #40]	@ 0x28
    bcfc:	eafffee2 	b	b88c <quotearg_buffer_restyled+0x108>
      break;
    bd00:	e3a0b000 	mov	fp, #0
    bd04:	e3a03001 	mov	r3, #1
    bd08:	e58db02c 	str	fp, [sp, #44]	@ 0x2c
    bd0c:	e58d300c 	str	r3, [sp, #12]
    bd10:	e58db014 	str	fp, [sp, #20]
    bd14:	e58db034 	str	fp, [sp, #52]	@ 0x34
      elide_outer_quotes = false;
    bd18:	e58db008 	str	fp, [sp, #8]
      break;
    bd1c:	e58db018 	str	fp, [sp, #24]
    bd20:	e58db01c 	str	fp, [sp, #28]
    bd24:	e58db028 	str	fp, [sp, #40]	@ 0x28
    bd28:	eafffed7 	b	b88c <quotearg_buffer_restyled+0x108>
      quote_string = "'";
    bd2c:	e3081db0 	movw	r1, #36272	@ 0x8db0
  switch (quoting_style)
    bd30:	e3a03000 	mov	r3, #0
    bd34:	e3a02001 	mov	r2, #1
      quote_string = "'";
    bd38:	e3401002 	movt	r1, #2
  switch (quoting_style)
    bd3c:	e1a0b003 	mov	fp, r3
      quoting_style = shell_always_quoting_style;
    bd40:	e3a0a002 	mov	sl, #2
  switch (quoting_style)
    bd44:	e58d302c 	str	r3, [sp, #44]	@ 0x2c
    bd48:	e58d200c 	str	r2, [sp, #12]
      quote_string = "'";
    bd4c:	e58d1028 	str	r1, [sp, #40]	@ 0x28
  switch (quoting_style)
    bd50:	e58d3014 	str	r3, [sp, #20]
    bd54:	e58d3034 	str	r3, [sp, #52]	@ 0x34
    bd58:	e58d2008 	str	r2, [sp, #8]
    bd5c:	e58d3018 	str	r3, [sp, #24]
      quote_string_len = 1;
    bd60:	e58d201c 	str	r2, [sp, #28]
    bd64:	eafffec8 	b	b88c <quotearg_buffer_restyled+0x108>
      quote_string = "\"";
    bd68:	e3082dbc 	movw	r2, #36284	@ 0x8dbc
  switch (quoting_style)
    bd6c:	e3a03001 	mov	r3, #1
    bd70:	e3a0b000 	mov	fp, #0
      quote_string = "\"";
    bd74:	e3402002 	movt	r2, #2
  switch (quoting_style)
    bd78:	e3a0a005 	mov	sl, #5
    bd7c:	e58d300c 	str	r3, [sp, #12]
    bd80:	e58db02c 	str	fp, [sp, #44]	@ 0x2c
      quote_string = "\"";
    bd84:	e58d2028 	str	r2, [sp, #40]	@ 0x28
  switch (quoting_style)
    bd88:	e58db014 	str	fp, [sp, #20]
    bd8c:	e58db034 	str	fp, [sp, #52]	@ 0x34
      elide_outer_quotes = true;
    bd90:	e58d3008 	str	r3, [sp, #8]
      backslash_escapes = true;
    bd94:	e58d3018 	str	r3, [sp, #24]
      quote_string_len = 1;
    bd98:	e58d301c 	str	r3, [sp, #28]
    bd9c:	eafffeba 	b	b88c <quotearg_buffer_restyled+0x108>
  switch (quoting_style)
    bda0:	e3082db0 	movw	r2, #36272	@ 0x8db0
    bda4:	e3a03001 	mov	r3, #1
    bda8:	e3a0b000 	mov	fp, #0
    bdac:	e3402002 	movt	r2, #2
    bdb0:	e3a0a002 	mov	sl, #2
    bdb4:	e58d300c 	str	r3, [sp, #12]
    bdb8:	e58db02c 	str	fp, [sp, #44]	@ 0x2c
    bdbc:	e58d2028 	str	r2, [sp, #40]	@ 0x28
    bdc0:	e58db014 	str	fp, [sp, #20]
    bdc4:	e58db034 	str	fp, [sp, #52]	@ 0x34
    bdc8:	e58d3008 	str	r3, [sp, #8]
    bdcc:	e58d3018 	str	r3, [sp, #24]
    bdd0:	e58d301c 	str	r3, [sp, #28]
    bdd4:	eafffeac 	b	b88c <quotearg_buffer_restyled+0x108>
      switch (c)
    bdd8:	e351007a 	cmp	r1, #122	@ 0x7a
    bddc:	8a000140 	bhi	c2e4 <quotearg_buffer_restyled+0xb60>
    bde0:	e351005b 	cmp	r1, #91	@ 0x5b
    bde4:	8a00012c 	bhi	c29c <quotearg_buffer_restyled+0xb18>
    bde8:	e351003e 	cmp	r1, #62	@ 0x3e
    bdec:	8a00015d 	bhi	c368 <quotearg_buffer_restyled+0xbe4>
    bdf0:	e2412024 	sub	r2, r1, #36	@ 0x24
    bdf4:	e3a03001 	mov	r3, #1
    bdf8:	e6ef2072 	uxtb	r2, r2
    bdfc:	e1a03213 	lsl	r3, r3, r2
    be00:	e59d203c 	ldr	r2, [sp, #60]	@ 0x3c
    be04:	e1130002 	tst	r3, r2
    be08:	1afffef3 	bne	b9dc <quotearg_buffer_restyled+0x258>
    be0c:	e59d2030 	ldr	r2, [sp, #48]	@ 0x30
    be10:	e0133002 	ands	r3, r3, r2
    be14:	1a000177 	bne	c3f8 <quotearg_buffer_restyled+0xc74>
          if (quoting_style == shell_always_quoting_style)
    be18:	e35a0002 	cmp	sl, #2
      c = arg[i];
    be1c:	13a01027 	movne	r1, #39	@ 0x27
          encountered_single_quote = true;
    be20:	158d402c 	strne	r4, [sp, #44]	@ 0x2c
          if (quoting_style == shell_always_quoting_style)
    be24:	1afffeec 	bne	b9dc <quotearg_buffer_restyled+0x258>
              if (elide_outer_quotes)
    be28:	e59d2008 	ldr	r2, [sp, #8]
    be2c:	e3520000 	cmp	r2, #0
    be30:	1affff32 	bne	bb00 <quotearg_buffer_restyled+0x37c>
              if (buffersize && ! orig_buffersize)
    be34:	e59d1034 	ldr	r1, [sp, #52]	@ 0x34
    be38:	e2562000 	subs	r2, r6, #0
    be3c:	13a02001 	movne	r2, #1
    be40:	e3510000 	cmp	r1, #0
    be44:	13a02000 	movne	r2, #0
    be48:	e3520000 	cmp	r2, #0
                  orig_buffersize = buffersize;
    be4c:	158d6034 	strne	r6, [sp, #52]	@ 0x34
              if (buffersize && ! orig_buffersize)
    be50:	1a00000e 	bne	be90 <quotearg_buffer_restyled+0x70c>
              STORE ('\'');
    be54:	e156000b 	cmp	r6, fp
    be58:	859d2010 	ldrhi	r2, [sp, #16]
    be5c:	83a03027 	movhi	r3, #39	@ 0x27
    be60:	87c2300b 	strbhi	r3, [r2, fp]
    be64:	e28b3001 	add	r3, fp, #1
              STORE ('\\');
    be68:	e1560003 	cmp	r6, r3
    be6c:	859d1010 	ldrhi	r1, [sp, #16]
    be70:	83a0205c 	movhi	r2, #92	@ 0x5c
    be74:	87c12003 	strbhi	r2, [r1, r3]
    be78:	e28b3002 	add	r3, fp, #2
              STORE ('\'');
    be7c:	e1560003 	cmp	r6, r3
    be80:	859d1010 	ldrhi	r1, [sp, #16]
    be84:	83a02027 	movhi	r2, #39	@ 0x27
    be88:	87c12003 	strbhi	r2, [r1, r3]
      switch (c)
    be8c:	e1a03006 	mov	r3, r6
              STORE ('\'');
    be90:	e28bb003 	add	fp, fp, #3
    be94:	e1a06003 	mov	r6, r3
      c = arg[i];
    be98:	e3a01027 	mov	r1, #39	@ 0x27
      bool escaping = false;
    be9c:	e3a00000 	mov	r0, #0
          encountered_single_quote = true;
    bea0:	e58d402c 	str	r4, [sp, #44]	@ 0x2c
              pending_shell_escape_end = false;
    bea4:	e58d0014 	str	r0, [sp, #20]
      END_ESC ();
    bea8:	e59d3014 	ldr	r3, [sp, #20]
    beac:	e2200001 	eor	r0, r0, #1
  for (i = 0;  ! (argsize == SIZE_MAX ? arg[i] == '\0' : i == argsize);  i++)
    beb0:	e2855001 	add	r5, r5, #1
      END_ESC ();
    beb4:	e0000003 	and	r0, r0, r3
    beb8:	e6ef0070 	uxtb	r0, r0
    bebc:	e3500000 	cmp	r0, #0
    bec0:	0afffef6 	beq	baa0 <quotearg_buffer_restyled+0x31c>
    bec4:	e156000b 	cmp	r6, fp
    bec8:	859d2010 	ldrhi	r2, [sp, #16]
    becc:	83a03027 	movhi	r3, #39	@ 0x27
    bed0:	87c2300b 	strbhi	r3, [r2, fp]
    bed4:	e28b3001 	add	r3, fp, #1
    bed8:	e1560003 	cmp	r6, r3
    bedc:	e28bb002 	add	fp, fp, #2
    bee0:	859d0010 	ldrhi	r0, [sp, #16]
    bee4:	83a02027 	movhi	r2, #39	@ 0x27
    bee8:	87c02003 	strbhi	r2, [r0, r3]
    beec:	e3a03000 	mov	r3, #0
    bef0:	e58d3014 	str	r3, [sp, #20]
    bef4:	eafffee9 	b	baa0 <quotearg_buffer_restyled+0x31c>
                  ? (argsize = strlen (arg)) : argsize))
    bef8:	e59d1000 	ldr	r1, [sp]
    befc:	e3530001 	cmp	r3, #1
    bf00:	e1a02003 	mov	r2, r3
    bf04:	93a02000 	movls	r2, #0
    bf08:	83a02001 	movhi	r2, #1
          && (i + quote_string_len
    bf0c:	e0853003 	add	r3, r5, r3
                  ? (argsize = strlen (arg)) : argsize))
    bf10:	e3710001 	cmn	r1, #1
    bf14:	13a02000 	movne	r2, #0
    bf18:	e3520000 	cmp	r2, #0
    bf1c:	0a000004 	beq	bf34 <quotearg_buffer_restyled+0x7b0>
    bf20:	e59d0004 	ldr	r0, [sp, #4]
    bf24:	e58d3024 	str	r3, [sp, #36]	@ 0x24
    bf28:	fa005154 	blx	20480 <strlen>
    bf2c:	e59d3024 	ldr	r3, [sp, #36]	@ 0x24
    bf30:	e58d0000 	str	r0, [sp]
          && (i + quote_string_len
    bf34:	e59d2000 	ldr	r2, [sp]
    bf38:	e1530002 	cmp	r3, r2
    bf3c:	8a000067 	bhi	c0e0 <quotearg_buffer_restyled+0x95c>
          && memcmp (arg + i, quote_string, quote_string_len) == 0)
    bf40:	e59d201c 	ldr	r2, [sp, #28]
    bf44:	e59d1028 	ldr	r1, [sp, #40]	@ 0x28
    bf48:	e59d0020 	ldr	r0, [sp, #32]
    bf4c:	eb00394b 	bl	1a480 <memcmp>
    bf50:	e3500000 	cmp	r0, #0
    bf54:	1a000061 	bne	c0e0 <quotearg_buffer_restyled+0x95c>
          if (elide_outer_quotes)
    bf58:	e59d3008 	ldr	r3, [sp, #8]
    bf5c:	e3530000 	cmp	r3, #0
    bf60:	1afffee9 	bne	bb0c <quotearg_buffer_restyled+0x388>
      c = arg[i];
    bf64:	e59d3020 	ldr	r3, [sp, #32]
    bf68:	e5d31000 	ldrb	r1, [r3]
      switch (c)
    bf6c:	e3510023 	cmp	r1, #35	@ 0x23
    bf70:	8a000122 	bhi	c400 <quotearg_buffer_restyled+0xc7c>
    bf74:	e3510023 	cmp	r1, #35	@ 0x23
    bf78:	979ff101 	ldrls	pc, [pc, r1, lsl #2]
    bf7c:	eafffe87 	b	b9a0 <quotearg_buffer_restyled+0x21c>
    bf80:	0000c080 	.word	0x0000c080
    bf84:	0000b9a0 	.word	0x0000b9a0
    bf88:	0000b9a0 	.word	0x0000b9a0
    bf8c:	0000b9a0 	.word	0x0000b9a0
    bf90:	0000b9a0 	.word	0x0000b9a0
    bf94:	0000b9a0 	.word	0x0000b9a0
    bf98:	0000b9a0 	.word	0x0000b9a0
    bf9c:	0000c028 	.word	0x0000c028
    bfa0:	0000c060 	.word	0x0000c060
    bfa4:	0000c054 	.word	0x0000c054
    bfa8:	0000c01c 	.word	0x0000c01c
    bfac:	0000c070 	.word	0x0000c070
    bfb0:	0000c044 	.word	0x0000c044
    bfb4:	0000c038 	.word	0x0000c038
    bfb8:	0000b9a0 	.word	0x0000b9a0
    bfbc:	0000b9a0 	.word	0x0000b9a0
    bfc0:	0000b9a0 	.word	0x0000b9a0
    bfc4:	0000b9a0 	.word	0x0000b9a0
    bfc8:	0000b9a0 	.word	0x0000b9a0
    bfcc:	0000b9a0 	.word	0x0000b9a0
    bfd0:	0000b9a0 	.word	0x0000b9a0
    bfd4:	0000b9a0 	.word	0x0000b9a0
    bfd8:	0000b9a0 	.word	0x0000b9a0
    bfdc:	0000b9a0 	.word	0x0000b9a0
    bfe0:	0000b9a0 	.word	0x0000b9a0
    bfe4:	0000b9a0 	.word	0x0000b9a0
    bfe8:	0000b9a0 	.word	0x0000b9a0
    bfec:	0000b9a0 	.word	0x0000b9a0
    bff0:	0000b9a0 	.word	0x0000b9a0
    bff4:	0000b9a0 	.word	0x0000b9a0
    bff8:	0000b9a0 	.word	0x0000b9a0
    bffc:	0000b9a0 	.word	0x0000b9a0
    c000:	0000c014 	.word	0x0000c014
    c004:	0000bb4c 	.word	0x0000bb4c
    c008:	0000bb4c 	.word	0x0000bb4c
    c00c:	0000bb44 	.word	0x0000bb44
    c010:	e3a07000 	mov	r7, #0
    c014:	e1a04007 	mov	r4, r7
    c018:	eafffe6f 	b	b9dc <quotearg_buffer_restyled+0x258>
          if (quoting_style == shell_always_quoting_style
    c01c:	e3a03000 	mov	r3, #0
      switch (c)
    c020:	e3a0206e 	mov	r2, #110	@ 0x6e
    c024:	eafffece 	b	bb64 <quotearg_buffer_restyled+0x3e0>
    c028:	e3a03000 	mov	r3, #0
              c = esc;
    c02c:	e3a01061 	mov	r1, #97	@ 0x61
      bool c_and_shell_quote_compat = false;
    c030:	e1a04003 	mov	r4, r3
    c034:	eafffe7f 	b	ba38 <quotearg_buffer_restyled+0x2b4>
          if (quoting_style == shell_always_quoting_style
    c038:	e3a03000 	mov	r3, #0
        case '\r': esc = 'r'; goto c_and_shell_escape;
    c03c:	e3a02072 	mov	r2, #114	@ 0x72
    c040:	eafffec7 	b	bb64 <quotearg_buffer_restyled+0x3e0>
              START_ESC ();
    c044:	e3a03000 	mov	r3, #0
              c = esc;
    c048:	e3a01066 	mov	r1, #102	@ 0x66
      bool c_and_shell_quote_compat = false;
    c04c:	e1a04003 	mov	r4, r3
    c050:	eafffe78 	b	ba38 <quotearg_buffer_restyled+0x2b4>
          if (quoting_style == shell_always_quoting_style
    c054:	e3a03000 	mov	r3, #0
        case '\t': esc = 't'; goto c_and_shell_escape;
    c058:	e3a02074 	mov	r2, #116	@ 0x74
    c05c:	eafffec0 	b	bb64 <quotearg_buffer_restyled+0x3e0>
              START_ESC ();
    c060:	e3a03000 	mov	r3, #0
              c = esc;
    c064:	e3a01062 	mov	r1, #98	@ 0x62
      bool c_and_shell_quote_compat = false;
    c068:	e1a04003 	mov	r4, r3
    c06c:	eafffe71 	b	ba38 <quotearg_buffer_restyled+0x2b4>
              START_ESC ();
    c070:	e3a03000 	mov	r3, #0
              c = esc;
    c074:	e3a01076 	mov	r1, #118	@ 0x76
      bool c_and_shell_quote_compat = false;
    c078:	e1a04003 	mov	r4, r3
    c07c:	eafffe6d 	b	ba38 <quotearg_buffer_restyled+0x2b4>
              START_ESC ();
    c080:	e1a00007 	mov	r0, r7
    c084:	e28b3001 	add	r3, fp, #1
    c088:	e156000b 	cmp	r6, fp
    c08c:	9a00021a 	bls	c8fc <quotearg_buffer_restyled+0x1178>
    c090:	e59d1010 	ldr	r1, [sp, #16]
              if (quoting_style != shell_always_quoting_style
    c094:	e3580000 	cmp	r8, #0
              START_ESC ();
    c098:	e3a0205c 	mov	r2, #92	@ 0x5c
    c09c:	e7c1200b 	strb	r2, [r1, fp]
              if (quoting_style != shell_always_quoting_style
    c0a0:	0a000217 	beq	c904 <quotearg_buffer_restyled+0x1180>
                  && i + 1 < argsize && '0' <= arg[i + 1] && arg[i + 1] <= '9')
    c0a4:	e59d1000 	ldr	r1, [sp]
    c0a8:	e2852001 	add	r2, r5, #1
    c0ac:	e1520001 	cmp	r2, r1
    c0b0:	2a000004 	bcs	c0c8 <quotearg_buffer_restyled+0x944>
    c0b4:	e59d1004 	ldr	r1, [sp, #4]
    c0b8:	e7d12002 	ldrb	r2, [r1, r2]
    c0bc:	e2422030 	sub	r2, r2, #48	@ 0x30
    c0c0:	e3520009 	cmp	r2, #9
    c0c4:	9a000239 	bls	c9b0 <quotearg_buffer_restyled+0x122c>
      if (! (((backslash_escapes && quoting_style != shell_always_quoting_style)
    c0c8:	e1a07000 	mov	r7, r0
    c0cc:	e1a0b003 	mov	fp, r3
    c0d0:	e1a00004 	mov	r0, r4
    c0d4:	e3a01030 	mov	r1, #48	@ 0x30
    c0d8:	e3a04000 	mov	r4, #0
    c0dc:	eafffe43 	b	b9f0 <quotearg_buffer_restyled+0x26c>
      c = arg[i];
    c0e0:	e59d3020 	ldr	r3, [sp, #32]
    c0e4:	e5d31000 	ldrb	r1, [r3]
      switch (c)
    c0e8:	e3510023 	cmp	r1, #35	@ 0x23
    c0ec:	8a000087 	bhi	c310 <quotearg_buffer_restyled+0xb8c>
    c0f0:	e3510023 	cmp	r1, #35	@ 0x23
    c0f4:	979ff101 	ldrls	pc, [pc, r1, lsl #2]
    c0f8:	eafffe27 	b	b99c <quotearg_buffer_restyled+0x218>
    c0fc:	0000c18c 	.word	0x0000c18c
    c100:	0000b99c 	.word	0x0000b99c
    c104:	0000b99c 	.word	0x0000b99c
    c108:	0000b99c 	.word	0x0000b99c
    c10c:	0000b99c 	.word	0x0000b99c
    c110:	0000b99c 	.word	0x0000b99c
    c114:	0000b99c 	.word	0x0000b99c
    c118:	0000c23c 	.word	0x0000c23c
    c11c:	0000c24c 	.word	0x0000c24c
    c120:	0000c26c 	.word	0x0000c26c
    c124:	0000c22c 	.word	0x0000c22c
    c128:	0000c28c 	.word	0x0000c28c
    c12c:	0000c27c 	.word	0x0000c27c
    c130:	0000c25c 	.word	0x0000c25c
    c134:	0000b99c 	.word	0x0000b99c
    c138:	0000b99c 	.word	0x0000b99c
    c13c:	0000b99c 	.word	0x0000b99c
    c140:	0000b99c 	.word	0x0000b99c
    c144:	0000b99c 	.word	0x0000b99c
    c148:	0000b99c 	.word	0x0000b99c
    c14c:	0000b99c 	.word	0x0000b99c
    c150:	0000b99c 	.word	0x0000b99c
    c154:	0000b99c 	.word	0x0000b99c
    c158:	0000b99c 	.word	0x0000b99c
    c15c:	0000b99c 	.word	0x0000b99c
    c160:	0000b99c 	.word	0x0000b99c
    c164:	0000b99c 	.word	0x0000b99c
    c168:	0000b99c 	.word	0x0000b99c
    c16c:	0000b99c 	.word	0x0000b99c
    c170:	0000b99c 	.word	0x0000b99c
    c174:	0000b99c 	.word	0x0000b99c
    c178:	0000b99c 	.word	0x0000b99c
    c17c:	0000c220 	.word	0x0000c220
    c180:	0000c010 	.word	0x0000c010
    c184:	0000c010 	.word	0x0000c010
    c188:	0000c218 	.word	0x0000c218
              START_ESC ();
    c18c:	e59d3008 	ldr	r3, [sp, #8]
    c190:	e3530000 	cmp	r3, #0
    c194:	1a00028d 	bne	cbd0 <quotearg_buffer_restyled+0x144c>
    c198:	e59d3014 	ldr	r3, [sp, #20]
    c19c:	e2230001 	eor	r0, r3, #1
    c1a0:	e28b3001 	add	r3, fp, #1
    c1a4:	e35a0002 	cmp	sl, #2
    c1a8:	13a00000 	movne	r0, #0
    c1ac:	02000001 	andeq	r0, r0, #1
    c1b0:	e3500000 	cmp	r0, #0
    c1b4:	0affffb3 	beq	c088 <quotearg_buffer_restyled+0x904>
    c1b8:	e156000b 	cmp	r6, fp
    c1bc:	859d1010 	ldrhi	r1, [sp, #16]
    c1c0:	83a02027 	movhi	r2, #39	@ 0x27
    c1c4:	87c1200b 	strbhi	r2, [r1, fp]
    c1c8:	e1560003 	cmp	r6, r3
    c1cc:	859d1010 	ldrhi	r1, [sp, #16]
    c1d0:	83a02024 	movhi	r2, #36	@ 0x24
    c1d4:	87c12003 	strbhi	r2, [r1, r3]
    c1d8:	e28b3002 	add	r3, fp, #2
    c1dc:	e1560003 	cmp	r6, r3
    c1e0:	859d1010 	ldrhi	r1, [sp, #16]
    c1e4:	83a02027 	movhi	r2, #39	@ 0x27
    c1e8:	87c12003 	strbhi	r2, [r1, r3]
    c1ec:	e28b3003 	add	r3, fp, #3
    c1f0:	e1560003 	cmp	r6, r3
    c1f4:	e28bb004 	add	fp, fp, #4
    c1f8:	9a0001c7 	bls	c91c <quotearg_buffer_restyled+0x1198>
    c1fc:	e59d1010 	ldr	r1, [sp, #16]
    c200:	e3a0205c 	mov	r2, #92	@ 0x5c
      bool c_and_shell_quote_compat = false;
    c204:	e3a04000 	mov	r4, #0
              START_ESC ();
    c208:	e58d0014 	str	r0, [sp, #20]
    c20c:	e7c12003 	strb	r2, [r1, r3]
              c = '0';
    c210:	e3a01030 	mov	r1, #48	@ 0x30
    c214:	eaffff23 	b	bea8 <quotearg_buffer_restyled+0x724>
      switch (c)
    c218:	e3a07000 	mov	r7, #0
    c21c:	eafffe48 	b	bb44 <quotearg_buffer_restyled+0x3c0>
          c_and_shell_quote_compat = true;
    c220:	e1a04007 	mov	r4, r7
      switch (c)
    c224:	e3a07000 	mov	r7, #0
    c228:	eafffdeb 	b	b9dc <quotearg_buffer_restyled+0x258>
          if (quoting_style == shell_always_quoting_style
    c22c:	e3a03000 	mov	r3, #0
      switch (c)
    c230:	e3a0206e 	mov	r2, #110	@ 0x6e
    c234:	e1a07003 	mov	r7, r3
    c238:	eafffe49 	b	bb64 <quotearg_buffer_restyled+0x3e0>
    c23c:	e3a03000 	mov	r3, #0
              c = esc;
    c240:	e3a01061 	mov	r1, #97	@ 0x61
      bool c_and_shell_quote_compat = false;
    c244:	e1a04003 	mov	r4, r3
    c248:	eafffdf7 	b	ba2c <quotearg_buffer_restyled+0x2a8>
              START_ESC ();
    c24c:	e3a03000 	mov	r3, #0
              c = esc;
    c250:	e3a01062 	mov	r1, #98	@ 0x62
      bool c_and_shell_quote_compat = false;
    c254:	e1a04003 	mov	r4, r3
    c258:	eafffdf3 	b	ba2c <quotearg_buffer_restyled+0x2a8>
          if (quoting_style == shell_always_quoting_style
    c25c:	e3a03000 	mov	r3, #0
        case '\r': esc = 'r'; goto c_and_shell_escape;
    c260:	e3a02072 	mov	r2, #114	@ 0x72
      switch (c)
    c264:	e1a07003 	mov	r7, r3
    c268:	eafffe3d 	b	bb64 <quotearg_buffer_restyled+0x3e0>
          if (quoting_style == shell_always_quoting_style
    c26c:	e3a03000 	mov	r3, #0
        case '\t': esc = 't'; goto c_and_shell_escape;
    c270:	e3a02074 	mov	r2, #116	@ 0x74
      switch (c)
    c274:	e1a07003 	mov	r7, r3
    c278:	eafffe39 	b	bb64 <quotearg_buffer_restyled+0x3e0>
              START_ESC ();
    c27c:	e3a03000 	mov	r3, #0
              c = esc;
    c280:	e3a01066 	mov	r1, #102	@ 0x66
      bool c_and_shell_quote_compat = false;
    c284:	e1a04003 	mov	r4, r3
    c288:	eafffde7 	b	ba2c <quotearg_buffer_restyled+0x2a8>
              START_ESC ();
    c28c:	e3a03000 	mov	r3, #0
              c = esc;
    c290:	e3a01076 	mov	r1, #118	@ 0x76
      bool c_and_shell_quote_compat = false;
    c294:	e1a04003 	mov	r4, r3
    c298:	eafffde3 	b	ba2c <quotearg_buffer_restyled+0x2a8>
      switch (c)
    c29c:	e241205c 	sub	r2, r1, #92	@ 0x5c
    c2a0:	e3a03001 	mov	r3, #1
    c2a4:	e6ef2072 	uxtb	r2, r2
    c2a8:	e1a03213 	lsl	r3, r3, r2
    c2ac:	e3d32156 	bics	r2, r3, #-2147483627	@ 0x80000015
    c2b0:	1afffdc9 	bne	b9dc <quotearg_buffer_restyled+0x258>
    c2b4:	e3130014 	tst	r3, #20
    c2b8:	1a00004e 	bne	c3f8 <quotearg_buffer_restyled+0xc74>
          if (quoting_style == shell_always_quoting_style)
    c2bc:	e35a0002 	cmp	sl, #2
    c2c0:	1a000044 	bne	c3d8 <quotearg_buffer_restyled+0xc54>
              if (elide_outer_quotes)
    c2c4:	e59d3008 	ldr	r3, [sp, #8]
    c2c8:	e3530000 	cmp	r3, #0
    c2cc:	1afffe0b 	bne	bb00 <quotearg_buffer_restyled+0x37c>
                  && i + 1 < argsize && '0' <= arg[i + 1] && arg[i + 1] <= '9')
    c2d0:	e59d0014 	ldr	r0, [sp, #20]
    c2d4:	e2855001 	add	r5, r5, #1
      bool c_and_shell_quote_compat = false;
    c2d8:	e3a04000 	mov	r4, #0
      c = arg[i];
    c2dc:	e3a0105c 	mov	r1, #92	@ 0x5c
    c2e0:	eafffef5 	b	bebc <quotearg_buffer_restyled+0x738>
      switch (c)
    c2e4:	e241207b 	sub	r2, r1, #123	@ 0x7b
    c2e8:	e6ef2072 	uxtb	r2, r2
    c2ec:	e3520003 	cmp	r2, #3
    c2f0:	8afffdaa 	bhi	b9a0 <quotearg_buffer_restyled+0x21c>
    c2f4:	e241307c 	sub	r3, r1, #124	@ 0x7c
    c2f8:	e3530002 	cmp	r3, #2
    c2fc:	979ff103 	ldrls	pc, [pc, r3, lsl #2]
    c300:	eafffe09 	b	bb2c <quotearg_buffer_restyled+0x3a8>
    c304:	0000bae0 	.word	0x0000bae0
    c308:	0000bb2c 	.word	0x0000bb2c
    c30c:	0000bb44 	.word	0x0000bb44
    c310:	e351007a 	cmp	r1, #122	@ 0x7a
    c314:	8a000076 	bhi	c4f4 <quotearg_buffer_restyled+0xd70>
    c318:	e351005b 	cmp	r1, #91	@ 0x5b
    c31c:	8a000025 	bhi	c3b8 <quotearg_buffer_restyled+0xc34>
    c320:	e351003e 	cmp	r1, #62	@ 0x3e
    c324:	8a000113 	bhi	c778 <quotearg_buffer_restyled+0xff4>
    c328:	e2412024 	sub	r2, r1, #36	@ 0x24
    c32c:	e3a03001 	mov	r3, #1
    c330:	e6ef2072 	uxtb	r2, r2
    c334:	e1a03213 	lsl	r3, r3, r2
    c338:	e59d203c 	ldr	r2, [sp, #60]	@ 0x3c
    c33c:	e0132002 	ands	r2, r3, r2
    c340:	1a000113 	bne	c794 <quotearg_buffer_restyled+0x1010>
    c344:	e3a00075 	mov	r0, #117	@ 0x75
    c348:	e3400780 	movt	r0, #1920	@ 0x780
    c34c:	e0133000 	ands	r3, r3, r0
    c350:	1a000065 	bne	c4ec <quotearg_buffer_restyled+0xd68>
          c_and_shell_quote_compat = true;
    c354:	e1a04007 	mov	r4, r7
          encountered_single_quote = true;
    c358:	e58d702c 	str	r7, [sp, #44]	@ 0x2c
      c = arg[i];
    c35c:	e3a01027 	mov	r1, #39	@ 0x27
      switch (c)
    c360:	e1a07003 	mov	r7, r3
    c364:	eafffd9c 	b	b9dc <quotearg_buffer_restyled+0x258>
    c368:	e351003f 	cmp	r1, #63	@ 0x3f
    c36c:	1a000126 	bne	c80c <quotearg_buffer_restyled+0x1088>
          switch (quoting_style)
    c370:	e35a0002 	cmp	sl, #2
    c374:	0a000056 	beq	c4d4 <quotearg_buffer_restyled+0xd50>
    c378:	e35a0005 	cmp	sl, #5
    c37c:	1a00000a 	bne	c3ac <quotearg_buffer_restyled+0xc28>
              if ((flags & QA_SPLIT_TRIGRAPHS)
    c380:	e59d3094 	ldr	r3, [sp, #148]	@ 0x94
    c384:	e2134004 	ands	r4, r3, #4
    c388:	0a000008 	beq	c3b0 <quotearg_buffer_restyled+0xc2c>
                  && i + 2 < argsize && arg[i + 1] == '?')
    c38c:	e59d3000 	ldr	r3, [sp]
    c390:	e2852002 	add	r2, r5, #2
    c394:	e1520003 	cmp	r2, r3
    c398:	2a000003 	bcs	c3ac <quotearg_buffer_restyled+0xc28>
    c39c:	e59d3020 	ldr	r3, [sp, #32]
    c3a0:	e5d31001 	ldrb	r1, [r3, #1]
    c3a4:	e351003f 	cmp	r1, #63	@ 0x3f
    c3a8:	0a000198 	beq	ca10 <quotearg_buffer_restyled+0x128c>
      bool c_and_shell_quote_compat = false;
    c3ac:	e3a04000 	mov	r4, #0
      c = arg[i];
    c3b0:	e3a0103f 	mov	r1, #63	@ 0x3f
    c3b4:	eafffd88 	b	b9dc <quotearg_buffer_restyled+0x258>
      switch (c)
    c3b8:	e241205c 	sub	r2, r1, #92	@ 0x5c
    c3bc:	e3a03001 	mov	r3, #1
    c3c0:	e6ef2072 	uxtb	r2, r2
    c3c4:	e1a03213 	lsl	r3, r3, r2
    c3c8:	e3d32156 	bics	r2, r3, #-2147483627	@ 0x80000015
    c3cc:	1a0000f0 	bne	c794 <quotearg_buffer_restyled+0x1010>
    c3d0:	e3130014 	tst	r3, #20
    c3d4:	1a000044 	bne	c4ec <quotearg_buffer_restyled+0xd68>
          if (backslash_escapes && elide_outer_quotes && quote_string_len)
    c3d8:	e59d3018 	ldr	r3, [sp, #24]
    c3dc:	e59d2008 	ldr	r2, [sp, #8]
    c3e0:	e0137002 	ands	r7, r3, r2
    c3e4:	0a000055 	beq	c540 <quotearg_buffer_restyled+0xdbc>
    c3e8:	e59d301c 	ldr	r3, [sp, #28]
    c3ec:	e3530000 	cmp	r3, #0
    c3f0:	0afffdc5 	beq	bb0c <quotearg_buffer_restyled+0x388>
    c3f4:	eaffffb5 	b	c2d0 <quotearg_buffer_restyled+0xb4c>
      switch (c)
    c3f8:	e1a04007 	mov	r4, r7
    c3fc:	eafffdb8 	b	bae4 <quotearg_buffer_restyled+0x360>
    c400:	e351007a 	cmp	r1, #122	@ 0x7a
    c404:	8a000148 	bhi	c92c <quotearg_buffer_restyled+0x11a8>
    c408:	e351005b 	cmp	r1, #91	@ 0x5b
    c40c:	8a000043 	bhi	c520 <quotearg_buffer_restyled+0xd9c>
    c410:	e351003e 	cmp	r1, #62	@ 0x3e
    c414:	8a00014f 	bhi	c958 <quotearg_buffer_restyled+0x11d4>
    c418:	e2412024 	sub	r2, r1, #36	@ 0x24
    c41c:	e3a03001 	mov	r3, #1
    c420:	e6ef2072 	uxtb	r2, r2
    c424:	e1a03213 	lsl	r3, r3, r2
    c428:	e59d203c 	ldr	r2, [sp, #60]	@ 0x3c
    c42c:	e1130002 	tst	r3, r2
    c430:	1a00014e 	bne	c970 <quotearg_buffer_restyled+0x11ec>
    c434:	e3a02075 	mov	r2, #117	@ 0x75
    c438:	e3402780 	movt	r2, #1920	@ 0x780
    c43c:	e1130002 	tst	r3, r2
    c440:	1afffdc1 	bne	bb4c <quotearg_buffer_restyled+0x3c8>
          c_and_shell_quote_compat = true;
    c444:	e1a04007 	mov	r4, r7
      c = arg[i];
    c448:	e3a01027 	mov	r1, #39	@ 0x27
          encountered_single_quote = true;
    c44c:	e58d702c 	str	r7, [sp, #44]	@ 0x2c
    c450:	eafffd61 	b	b9dc <quotearg_buffer_restyled+0x258>
  if (len == 0 && quoting_style == shell_always_quoting_style
    c454:	e24a3002 	sub	r3, sl, #2
    c458:	e16f3f13 	clz	r3, r3
    c45c:	e1a032a3 	lsr	r3, r3, #5
    c460:	e35b0000 	cmp	fp, #0
    c464:	13a02000 	movne	r2, #0
    c468:	02032001 	andeq	r2, r3, #1
    c46c:	e3520000 	cmp	r2, #0
    c470:	0a0000ea 	beq	c820 <quotearg_buffer_restyled+0x109c>
      && elide_outer_quotes)
    c474:	e59d3008 	ldr	r3, [sp, #8]
    c478:	e3530000 	cmp	r3, #0
    c47c:	1afffd9e 	bne	bafc <quotearg_buffer_restyled+0x378>
      && encountered_single_quote)
    c480:	e59d302c 	ldr	r3, [sp, #44]	@ 0x2c
    c484:	e3530000 	cmp	r3, #0
    c488:	0a0001f6 	beq	cc68 <quotearg_buffer_restyled+0x14e4>
      if (all_c_and_shell_quote_compat)
    c48c:	e59d300c 	ldr	r3, [sp, #12]
    c490:	e3530000 	cmp	r3, #0
    c494:	1a0001e1 	bne	cc20 <quotearg_buffer_restyled+0x149c>
      else if (! buffersize && orig_buffersize)
    c498:	e59d2034 	ldr	r2, [sp, #52]	@ 0x34
    c49c:	e16f3f16 	clz	r3, r6
    c4a0:	e1a032a3 	lsr	r3, r3, #5
    c4a4:	e3520000 	cmp	r2, #0
    c4a8:	03a03000 	moveq	r3, #0
    c4ac:	e3530000 	cmp	r3, #0
    c4b0:	0a0001dd 	beq	cc2c <quotearg_buffer_restyled+0x14a8>
          buffersize = orig_buffersize;
    c4b4:	e59d6034 	ldr	r6, [sp, #52]	@ 0x34
      else if (! buffersize && orig_buffersize)
    c4b8:	e58d302c 	str	r3, [sp, #44]	@ 0x2c
    c4bc:	eafffdf7 	b	bca0 <quotearg_buffer_restyled+0x51c>
          if (! (argsize == SIZE_MAX ? arg[1] == '\0' : argsize == 1))
    c4c0:	e59d3004 	ldr	r3, [sp, #4]
    c4c4:	e5d33001 	ldrb	r3, [r3, #1]
    c4c8:	e3530000 	cmp	r3, #0
    c4cc:	1afffd9e 	bne	bb4c <quotearg_buffer_restyled+0x3c8>
    c4d0:	eafffd9b 	b	bb44 <quotearg_buffer_restyled+0x3c0>
              if (elide_outer_quotes)
    c4d4:	e59d3008 	ldr	r3, [sp, #8]
    c4d8:	e3530000 	cmp	r3, #0
    c4dc:	1afffd87 	bne	bb00 <quotearg_buffer_restyled+0x37c>
      bool c_and_shell_quote_compat = false;
    c4e0:	e1a04003 	mov	r4, r3
      bool escaping = false;
    c4e4:	e1a00003 	mov	r0, r3
    c4e8:	eafffe6e 	b	bea8 <quotearg_buffer_restyled+0x724>
      switch (c)
    c4ec:	e1a07002 	mov	r7, r2
          if (quoting_style == shell_always_quoting_style
    c4f0:	eafffd95 	b	bb4c <quotearg_buffer_restyled+0x3c8>
      switch (c)
    c4f4:	e241207b 	sub	r2, r1, #123	@ 0x7b
    c4f8:	e6ef2072 	uxtb	r2, r2
    c4fc:	e3520003 	cmp	r2, #3
    c500:	8afffd25 	bhi	b99c <quotearg_buffer_restyled+0x218>
    c504:	e241307c 	sub	r3, r1, #124	@ 0x7c
    c508:	e3530002 	cmp	r3, #2
    c50c:	979ff103 	ldrls	pc, [pc, r3, lsl #2]
    c510:	eafffd84 	b	bb28 <quotearg_buffer_restyled+0x3a4>
    c514:	0000c010 	.word	0x0000c010
    c518:	0000bb28 	.word	0x0000bb28
    c51c:	0000c218 	.word	0x0000c218
    c520:	e241205c 	sub	r2, r1, #92	@ 0x5c
    c524:	e3a03001 	mov	r3, #1
    c528:	e6ef2072 	uxtb	r2, r2
    c52c:	e1a03213 	lsl	r3, r3, r2
    c530:	e3d32156 	bics	r2, r3, #-2147483627	@ 0x80000015
    c534:	1a00010d 	bne	c970 <quotearg_buffer_restyled+0x11ec>
    c538:	e3130014 	tst	r3, #20
    c53c:	1afffd82 	bne	bb4c <quotearg_buffer_restyled+0x3c8>
          if (backslash_escapes)
    c540:	e59d3018 	ldr	r3, [sp, #24]
    c544:	e3530000 	cmp	r3, #0
    c548:	0afffd7f 	beq	bb4c <quotearg_buffer_restyled+0x3c8>
      bool c_and_shell_quote_compat = false;
    c54c:	e3a04000 	mov	r4, #0
              c = esc;
    c550:	e3a0105c 	mov	r1, #92	@ 0x5c
    c554:	eafffd4b 	b	ba88 <quotearg_buffer_restyled+0x304>
                if (argsize == SIZE_MAX)
    c558:	e59d3000 	ldr	r3, [sp]
    c55c:	e3730001 	cmn	r3, #1
    c560:	e3a03000 	mov	r3, #0
    c564:	e58d3060 	str	r3, [sp, #96]	@ 0x60
    c568:	e58d3064 	str	r3, [sp, #100]	@ 0x64
    c56c:	1a000004 	bne	c584 <quotearg_buffer_restyled+0xe00>
                  argsize = strlen (arg);
    c570:	e59d0004 	ldr	r0, [sp, #4]
    c574:	e58d1024 	str	r1, [sp, #36]	@ 0x24
    c578:	fa004fc0 	blx	20480 <strlen>
    c57c:	e59d1024 	ldr	r1, [sp, #36]	@ 0x24
    c580:	e58d0000 	str	r0, [sp]
    c584:	e58db050 	str	fp, [sp, #80]	@ 0x50
      switch (c)
    c588:	e3a02000 	mov	r2, #0
    c58c:	e58d6024 	str	r6, [sp, #36]	@ 0x24
    c590:	e89d0840 	ldm	sp, {r6, fp}
    c594:	e58d8044 	str	r8, [sp, #68]	@ 0x44
    c598:	e1a08002 	mov	r8, r2
    c59c:	e58d1048 	str	r1, [sp, #72]	@ 0x48
    c5a0:	e58d704c 	str	r7, [sp, #76]	@ 0x4c
                    size_t bytes = mbrtoc32 (&w, &arg[i + m],
    c5a4:	e0857008 	add	r7, r5, r8
    c5a8:	e28d3060 	add	r3, sp, #96	@ 0x60
    c5ac:	e0462007 	sub	r2, r6, r7
    c5b0:	e08b1007 	add	r1, fp, r7
    c5b4:	e28d005c 	add	r0, sp, #92	@ 0x5c
    c5b8:	eb0008c2 	bl	e8c8 <mbrtoc32>
                    if (bytes == 0)
    c5bc:	e3500000 	cmp	r0, #0
    c5c0:	0a000014 	beq	c618 <quotearg_buffer_restyled+0xe94>
                    else if (bytes == (size_t) -1)
    c5c4:	e3700001 	cmn	r0, #1
    c5c8:	0a000140 	beq	cad0 <quotearg_buffer_restyled+0x134c>
                    else if (bytes == (size_t) -2)
    c5cc:	e3700002 	cmn	r0, #2
    c5d0:	0a000146 	beq	caf0 <quotearg_buffer_restyled+0x136c>
                        if (bytes == (size_t) -3)
    c5d4:	e3700003 	cmn	r0, #3
    c5d8:	0a000006 	beq	c5f8 <quotearg_buffer_restyled+0xe74>
                        if ('[' == 0x5b && elide_outer_quotes
    c5dc:	e59d3008 	ldr	r3, [sp, #8]
    c5e0:	e35a0002 	cmp	sl, #2
    c5e4:	13a03000 	movne	r3, #0
    c5e8:	02033001 	andeq	r3, r3, #1
    c5ec:	e3530000 	cmp	r3, #0
    c5f0:	1a00006c 	bne	c7a8 <quotearg_buffer_restyled+0x1024>
                        m += bytes;
    c5f4:	e0888000 	add	r8, r8, r0
                        if (! c32isprint (w))
    c5f8:	e59d005c 	ldr	r0, [sp, #92]	@ 0x5c
    c5fc:	eb00086e 	bl	e7bc <c32isprint>
                          printable = false;
    c600:	e3500000 	cmp	r0, #0
                    if (mbsinit (&mbstate))
    c604:	e28d0060 	add	r0, sp, #96	@ 0x60
                          printable = false;
    c608:	03a04000 	moveq	r4, #0
                    if (mbsinit (&mbstate))
    c60c:	eb0028e8 	bl	169b4 <mbsinit>
    c610:	e3500000 	cmp	r0, #0
    c614:	0affffe2 	beq	c5a4 <quotearg_buffer_restyled+0xe20>
            if (1 < m || (backslash_escapes && ! printable))
    c618:	e28d1048 	add	r1, sp, #72	@ 0x48
    c61c:	e59d3018 	ldr	r3, [sp, #24]
    c620:	e8910882 	ldm	r1, {r1, r7, fp}
    c624:	e1a02008 	mov	r2, r8
    c628:	e224c001 	eor	ip, r4, #1
    c62c:	e59d8044 	ldr	r8, [sp, #68]	@ 0x44
    c630:	e00cc003 	and	ip, ip, r3
    c634:	e59d6024 	ldr	r6, [sp, #36]	@ 0x24
    c638:	e3520001 	cmp	r2, #1
    c63c:	9afffce4 	bls	b9d4 <quotearg_buffer_restyled+0x250>
                size_t ilim = i + m;
    c640:	e59d3020 	ldr	r3, [sp, #32]
    c644:	e082e005 	add	lr, r2, r5
                        START_ESC ();
    c648:	e58d4020 	str	r4, [sp, #32]
      bool escaping = false;
    c64c:	e3a02000 	mov	r2, #0
                        START_ESC ();
    c650:	e58d909c 	str	r9, [sp, #156]	@ 0x9c
                    END_ESC ();
    c654:	e3a08027 	mov	r8, #39	@ 0x27
                        START_ESC ();
    c658:	e59d4010 	ldr	r4, [sp, #16]
    c65c:	e59d9014 	ldr	r9, [sp, #20]
